(dp0
Vsplit second 
p1
(lp2
(S'2011-08-05'
p3
I5
tp4
a(S'2011-08-12'
p5
I12
tp6
asVwhen we met 
p7
(lp8
(S'2014-05-16'
p9
I6
tp10
asVthe alloy of law 
p11
(lp12
(S'2011-11-25'
p13
I9
tp14
asVboneman's daughters 
p15
(lp16
(S'2011-11-11'
p17
I8
tp18
asVcan you keep a secret? 
p19
(lp20
(S'2011-10-21'
p21
I5
tp22
a(S'2011-10-28'
p23
I9
tp24
a(S'2011-11-04'
p25
I6
tp26
a(S'2011-11-11'
p27
I9
tp28
asVa thousand tomorrows 
p29
(lp30
(S'2011-09-30'
p31
I10
tp32
asVwilderness 
p33
(lp34
(S'2013-11-22'
p35
I14
tp36
asVgathering prey 
p37
(lp38
(S'2015-05-15'
p39
I1
tp40
a(S'2015-05-22'
p41
I5
tp42
a(S'2015-05-29'
p43
I5
tp44
a(S'2015-06-05'
p45
I7
tp46
a(S'2015-06-12'
p47
I13
tp48
asVthe paris wife 
p49
(lp50
(S'2011-03-25'
p51
I13
tp52
a(S'2011-04-01'
p53
I13
tp54
a(S'2011-04-08'
p55
I15
tp56
a(S'2011-04-15'
p57
I12
tp58
a(S'2011-04-22'
p59
I12
tp60
a(S'2011-04-29'
p61
I13
tp62
a(S'2011-05-06'
p63
I15
tp64
a(S'2011-05-13'
p65
I14
tp66
a(S'2011-05-27'
p67
I13
tp68
a(S'2011-06-03'
p69
I14
tp70
asVthe tombs 
p71
(lp72
(S'2012-09-21'
p73
I8
tp74
asVthe one and only 
p75
(lp76
(S'2014-06-06'
p77
I1
tp78
a(S'2014-06-13'
p79
I7
tp80
a(S'2014-06-20'
p81
I7
tp82
a(S'2014-06-27'
p83
I9
tp84
asVsisterhood everlasting 
p85
(lp86
(S'2011-07-01'
p87
I14
tp88
asVuntil proven guilty 
p89
(lp90
(S'2011-08-19'
p91
I5
tp92
a(S'2011-08-26'
p93
I4
tp94
a(S'2011-09-02'
p95
I11
tp96
a(S'2011-09-09'
p97
I12
tp98
asVfour nights with the duke 
p99
(lp100
(S'2015-04-17'
p101
I11
tp102
asVlost and found in cedar cove 
p103
(lp104
(S'2013-08-02'
p105
I13
tp106
asVunfinished business 
p107
(lp108
(S'2011-11-18'
p109
I11
tp110
a(S'2011-11-25'
p111
I7
tp112
a(S'2011-12-02'
p113
I11
tp114
a(S'2011-12-09'
p115
I15
tp116
a(S'2012-03-30'
p117
I11
tp118
asVbe with me 
p119
(lp120
(S'2014-02-21'
p121
I5
tp122
asVfifty shades trilogy 
p123
(lp124
(S'2012-05-04'
p125
I12
tp126
a(S'2012-05-11'
p127
I9
tp128
a(S'2012-05-18'
p129
I8
tp130
a(S'2012-05-25'
p131
I7
tp132
a(S'2012-06-01'
p133
I6
tp134
a(S'2012-06-08'
p135
I4
tp136
a(S'2012-06-15'
p137
I5
tp138
a(S'2012-06-22'
p139
I6
tp140
a(S'2012-06-29'
p141
I6
tp142
a(S'2012-07-06'
p143
I7
tp144
a(S'2012-07-13'
p145
I8
tp146
a(S'2012-07-20'
p147
I9
tp148
a(S'2012-07-27'
p149
I9
tp150
a(S'2012-08-03'
p151
I12
tp152
a(S'2012-09-07'
p153
I12
tp154
a(S'2014-08-08'
p155
I11
tp156
a(S'2015-02-20'
p157
I9
tp158
a(S'2015-02-27'
p159
I9
tp160
a(S'2015-03-06'
p161
I8
tp162
asVstar wars: aftermath 
p163
(lp164
(S'2015-09-18'
p165
I7
tp166
a(S'2015-09-25'
p167
I11
tp168
asVgone - part two 
p169
(lp170
(S'2015-01-09'
p171
I13
tp172
asVthe magician's land 
p173
(lp174
(S'2014-08-22'
p175
I10
tp176
asVdamaged 
p177
(lp178
(S'2013-04-26'
p179
I6
tp180
a(S'2013-05-03'
p181
I2
tp182
a(S'2013-05-10'
p183
I4
tp184
a(S'2013-05-17'
p185
I7
tp186
asVbefore i go to sleep 
p187
(lp188
(S'2011-07-01'
p189
I11
tp190
a(S'2011-07-29'
p191
I7
tp192
asVthe guardian 
p193
(lp194
(S'2011-11-18'
p195
I9
tp196
asVinnocence 
p197
(lp198
(S'2013-12-27'
p199
I4
tp200
a(S'2014-01-03'
p201
I12
tp202
a(S'2014-01-10'
p203
I12
tp204
a(S'2014-01-17'
p205
I14
tp206
asVlisten to your heart 
p207
(lp208
(S'2011-10-07'
p209
I7
tp210
asVprivate games 
p211
(lp212
(S'2012-03-02'
p213
I1
tp214
a(S'2012-03-09'
p215
I6
tp216
a(S'2012-03-16'
p217
I12
tp218
a(S'2012-03-23'
p219
I12
tp220
a(S'2012-03-30'
p221
I9
tp222
a(S'2012-04-06'
p223
I14
tp224
asVthe lowland 
p225
(lp226
(S'2013-10-11'
p227
I5
tp228
a(S'2013-10-18'
p229
I14
tp230
asVfriends \u2014 and then some 
p231
(lp232
(S'2014-03-14'
p233
I3
tp234
asVone grave at a time 
p235
(lp236
(S'2011-09-16'
p237
I13
tp238
asVheat rises 
p239
(lp240
(S'2011-10-07'
p241
I4
tp242
asVhow the light gets in 
p243
(lp244
(S'2013-09-13'
p245
I3
tp246
asVfull black 
p247
(lp248
(S'2011-08-12'
p249
I3
tp250
a(S'2011-08-19'
p251
I4
tp252
a(S'2011-08-26'
p253
I8
tp254
a(S'2011-09-02'
p255
I14
tp256
asVit's only love 
p257
(lp258
(S'2015-11-20'
p259
I15
tp260
asVlast one home 
p261
(lp262
(S'2015-03-27'
p263
I3
tp264
asVeverything for us 
p265
(lp266
(S'2013-09-20'
p267
I11
tp268
asVthe all-girl filling station's last reunion 
p269
(lp270
(S'2013-11-22'
p271
I9
tp272
asVskin game 
p273
(lp274
(S'2014-06-13'
p275
I1
tp276
a(S'2014-06-20'
p277
I8
tp278
a(S'2014-06-27'
p279
I15
tp280
asVthe snowman 
p281
(lp282
(S'2011-06-03'
p283
I15
tp284
asVthirty-four and a half predicaments 
p285
(lp286
(S'2015-05-15'
p287
I13
tp288
asVdreams of joy 
p289
(lp290
(S'2011-06-17'
p291
I9
tp292
asVinsatiable appetites 
p293
(lp294
(S'2015-01-23'
p295
I3
tp296
asVriver road 
p297
(lp298
(S'2014-01-24'
p299
I8
tp300
asVghost ship 
p301
(lp302
(S'2014-06-13'
p303
I4
tp304
asVzero day 
p305
(lp306
(S'2011-11-18'
p307
I1
tp308
a(S'2011-11-25'
p309
I4
tp310
a(S'2011-12-02'
p311
I6
tp312
a(S'2011-12-09'
p313
I10
tp314
a(S'2011-12-16'
p315
I11
tp316
a(S'2011-12-23'
p317
I13
tp318
a(S'2011-12-30'
p319
I14
tp320
asVthe innocent 
p321
(lp322
(S'2012-05-04'
p323
I4
tp324
a(S'2012-05-11'
p325
I7
tp326
a(S'2012-05-18'
p327
I6
tp328
a(S'2012-05-25'
p329
I8
tp330
a(S'2012-06-01'
p331
I8
tp332
a(S'2012-06-08'
p333
I8
tp334
a(S'2012-06-15'
p335
I12
tp336
a(S'2012-06-22'
p337
I10
tp338
a(S'2012-07-06'
p339
I12
tp340
asVdoing hard time 
p341
(lp342
(S'2013-10-25'
p343
I2
tp344
asVseals of summer 
p345
(lp346
(S'2014-05-09'
p347
I11
tp348
asVstarting now 
p349
(lp350
(S'2013-04-19'
p351
I3
tp352
asVthe fall 
p353
(lp354
(S'2015-05-22'
p355
I10
tp356
asVfirst frost 
p357
(lp358
(S'2015-02-06'
p359
I12
tp360
asVthe mayan secrets 
p361
(lp362
(S'2013-09-20'
p363
I7
tp364
a(S'2013-09-27'
p365
I14
tp366
asVone night: unveiled 
p367
(lp368
(S'2015-02-27'
p369
I14
tp370
asVsoaring 
p371
(lp372
(S'2015-04-03'
p373
I9
tp374
asVthe golem of hollywood 
p375
(lp376
(S'2014-10-03'
p377
I12
tp378
asVthe masterful mr. montague 
p379
(lp380
(S'2014-05-16'
p381
I14
tp382
asVfate of the jedi: apocalypse 
p383
(lp384
(S'2012-03-30'
p385
I8
tp386
asVcolorless tsukuru tazaki and his years of pilgrimage 
p387
(lp388
(S'2014-08-29'
p389
I5
tp390
a(S'2014-09-05'
p391
I12
tp392
asVbeauty from surrender 
p393
(lp394
(S'2013-06-14'
p395
I11
tp396
a(S'2013-06-21'
p397
I10
tp398
asVthreat vector 
p399
(lp400
(S'2012-12-21'
p401
I1
tp402
a(S'2012-12-28'
p403
I6
tp404
a(S'2013-01-04'
p405
I7
tp406
asVgarden of lies 
p407
(lp408
(S'2015-05-08'
p409
I7
tp410
asVexclusive 
p411
(lp412
(S'2013-09-13'
p413
I13
tp414
asVwritten in my own heart's blood 
p415
(lp416
(S'2014-06-27'
p417
I1
tp418
a(S'2014-07-04'
p419
I5
tp420
a(S'2014-07-11'
p421
I12
tp422
a(S'2014-07-18'
p423
I15
tp424
asVporch lights 
p425
(lp426
(S'2012-06-29'
p427
I13
tp428
asVthe fallen angel 
p429
(lp430
(S'2012-08-03'
p431
I4
tp432
a(S'2012-08-10'
p433
I11
tp434
asVthe abbey 
p435
(lp436
(S'2011-09-09'
p437
I7
tp438
a(S'2011-09-16'
p439
I6
tp440
a(S'2011-09-23'
p441
I7
tp442
a(S'2011-09-30'
p443
I7
tp444
a(S'2011-10-07'
p445
I6
tp446
a(S'2011-10-14'
p447
I6
tp448
a(S'2011-10-21'
p449
I7
tp450
a(S'2011-10-28'
p451
I10
tp452
a(S'2011-11-04'
p453
I9
tp454
a(S'2011-11-11'
p455
I11
tp456
asVgo set a watchman 
p457
(lp458
(S'2015-07-31'
p459
I1
tp460
a(S'2015-08-07'
p461
I1
tp462
a(S'2015-08-14'
p463
I1
tp464
a(S'2015-08-21'
p465
I2
tp466
a(S'2015-08-28'
p467
I1
tp468
a(S'2015-09-04'
p469
I4
tp470
a(S'2015-09-11'
p471
I6
tp472
a(S'2015-09-18'
p473
I10
tp474
a(S'2015-09-25'
p475
I5
tp476
a(S'2015-10-02'
p477
I12
tp478
a(S'2015-10-09'
p479
I10
tp480
a(S'2015-10-23'
p481
I15
tp482
a(S'2015-12-18'
p483
I9
tp484
asVcrash and burn 
p485
(lp486
(S'2015-02-20'
p487
I4
tp488
asVabout a vampire 
p489
(lp490
(S'2015-10-16'
p491
I11
tp492
asVhollywood dirt 
p493
(lp494
(S'2015-09-25'
p495
I8
tp496
a(S'2015-10-02'
p497
I15
tp498
asVzero hour 
p499
(lp500
(S'2013-06-14'
p501
I6
tp502
asVthen came you 
p503
(lp504
(S'2011-07-29'
p505
I4
tp506
a(S'2011-08-05'
p507
I10
tp508
a(S'2011-08-12'
p509
I14
tp510
asVmission to paris 
p511
(lp512
(S'2012-06-29'
p513
I9
tp514
asVchasing fire 
p515
(lp516
(S'2011-04-29'
p517
I2
tp518
a(S'2011-05-06'
p519
I9
tp520
a(S'2011-05-13'
p521
I10
tp522
a(S'2011-05-20'
p523
I13
tp524
asVplum island 
p525
(lp526
(S'2012-11-23'
p527
I14
tp528
asV77 shadow street 
p529
(lp530
(S'2012-01-13'
p531
I8
tp532
asVlife after life 
p533
(lp534
(S'2013-04-19'
p535
I6
tp536
a(S'2013-04-26'
p537
I7
tp538
a(S'2013-05-03'
p539
I15
tp540
a(S'2013-05-10'
p541
I17
tp542
asVthe grownup 
p543
(lp544
(S'2015-11-20'
p545
I11
tp546
asVthe slow regard of silent things 
p547
(lp548
(S'2014-11-14'
p549
I4
tp550
asVdead ever after 
p551
(lp552
(S'2013-05-24'
p553
I1
tp554
a(S'2013-05-31'
p555
I5
tp556
a(S'2013-06-07'
p557
I7
tp558
asVgrey 
p559
(lp560
(S'2015-07-03'
p561
I1
tp562
a(S'2015-07-10'
p563
I1
tp564
a(S'2015-07-17'
p565
I1
tp566
a(S'2015-07-24'
p567
I1
tp568
a(S'2015-07-31'
p569
I2
tp570
a(S'2015-08-07'
p571
I3
tp572
a(S'2015-08-14'
p573
I2
tp574
a(S'2015-08-21'
p575
I4
tp576
a(S'2015-08-28'
p577
I5
tp578
a(S'2015-09-04'
p579
I8
tp580
a(S'2015-09-11'
p581
I11
tp582
a(S'2015-09-25'
p583
I12
tp584
a(S'2015-10-09'
p585
I15
tp586
asVbroken harbor 
p587
(lp588
(S'2012-08-10'
p589
I10
tp590
asVremains of innocence 
p591
(lp592
(S'2014-08-08'
p593
I10
tp594
asVlabor day 
p595
(lp596
(S'2014-02-07'
p597
I9
tp598
a(S'2014-02-14'
p599
I6
tp600
a(S'2014-02-21'
p601
I15
tp602
asVclose to home 
p603
(lp604
(S'2014-09-12'
p605
I13
tp606
asVtenth of december 
p607
(lp608
(S'2013-01-25'
p609
I13
tp610
a(S'2013-02-15'
p611
I13
tp612
asVnatchez burning 
p613
(lp614
(S'2014-05-16'
p615
I2
tp616
a(S'2014-05-23'
p617
I8
tp618
a(S'2014-05-30'
p619
I8
tp620
a(S'2014-06-06'
p621
I12
tp622
asVextremely loud and incredibly close 
p623
(lp624
(S'2012-01-20'
p625
I7
tp626
a(S'2012-01-27'
p627
I5
tp628
a(S'2012-02-03'
p629
I1
tp630
a(S'2012-02-10'
p631
I1
tp632
a(S'2012-02-17'
p633
I3
tp634
a(S'2012-02-24'
p635
I5
tp636
a(S'2012-03-02'
p637
I14
tp638
asVrule breaker 
p639
(lp640
(S'2014-02-21'
p641
I11
tp642
asVsaint odd 
p643
(lp644
(S'2015-01-30'
p645
I2
tp646
a(S'2015-02-06'
p647
I11
tp648
asVmemory man 
p649
(lp650
(S'2015-05-08'
p651
I1
tp652
a(S'2015-05-15'
p653
I3
tp654
a(S'2015-05-22'
p655
I3
tp656
a(S'2015-05-29'
p657
I3
tp658
a(S'2015-06-05'
p659
I4
tp660
a(S'2015-06-12'
p661
I5
tp662
a(S'2015-06-19'
p663
I6
tp664
a(S'2015-06-26'
p665
I10
tp666
a(S'2015-07-03'
p667
I15
tp668
asVcreed's honor 
p669
(lp670
(S'2011-06-17'
p671
I10
tp672
asVfrost burned 
p673
(lp674
(S'2013-03-22'
p675
I3
tp676
asVthe gods of guilt 
p677
(lp678
(S'2013-12-20'
p679
I1
tp680
a(S'2013-12-27'
p681
I5
tp682
a(S'2014-01-03'
p683
I8
tp684
a(S'2014-01-10'
p685
I8
tp686
a(S'2014-01-17'
p687
I8
tp688
a(S'2014-01-31'
p689
I15
tp690
asVthe chance 
p691
(lp692
(S'2013-03-22'
p693
I11
tp694
a(S'2014-03-14'
p695
I1
tp696
a(S'2014-03-21'
p697
I12
tp698
asVleft to die 
p699
(lp700
(S'2013-05-31'
p701
I14
tp702
asVsix years 
p703
(lp704
(S'2013-04-05'
p705
I1
tp706
a(S'2013-04-12'
p707
I3
tp708
a(S'2013-04-19'
p709
I4
tp710
a(S'2013-04-26'
p711
I4
tp712
a(S'2013-05-03'
p713
I7
tp714
a(S'2013-05-10'
p715
I12
tp716
asVtom clancy under fire 
p717
(lp718
(S'2015-07-03'
p719
I4
tp720
a(S'2015-07-10'
p721
I14
tp722
asVdust 
p723
(lp724
(S'2013-08-30'
p725
I7
tp726
a(S'2013-11-29'
p727
I2
tp728
a(S'2013-12-06'
p729
I6
tp730
a(S'2013-12-13'
p731
I13
tp732
asVnever too far 
p733
(lp734
(S'2013-03-29'
p735
I15
tp736
asVbeyond desire collection 
p737
(lp738
(S'2014-05-23'
p739
I14
tp740
asVguilt 
p741
(lp742
(S'2013-03-01'
p743
I3
tp744
a(S'2013-03-08'
p745
I12
tp746
asVhidden order 
p747
(lp748
(S'2013-07-26'
p749
I1
tp750
a(S'2013-08-02'
p751
I7
tp752
a(S'2013-08-09'
p753
I5
tp754
a(S'2013-08-16'
p755
I13
tp756
asVwe are not ourselves 
p757
(lp758
(S'2014-09-05'
p759
I13
tp760
asVstarry night 
p761
(lp762
(S'2013-10-25'
p763
I7
tp764
asVa creed in stone creek 
p765
(lp766
(S'2011-03-11'
p767
I13
tp768
a(S'2011-03-18'
p769
I15
tp770
asVcomplete me 
p771
(lp772
(S'2013-08-16'
p773
I3
tp774
asVcountdown 
p775
(lp776
(S'2014-09-19'
p777
I13
tp778
asVquicksilver 
p779
(lp780
(S'2011-05-06'
p781
I13
tp782
asVa wicked snow 
p783
(lp784
(S'2015-04-10'
p785
I12
tp786
asVbombshell 
p787
(lp788
(S'2013-07-26'
p789
I2
tp790
a(S'2013-08-02'
p791
I12
tp792
a(S'2013-08-09'
p793
I13
tp794
asVsniper's honor 
p795
(lp796
(S'2014-06-06'
p797
I8
tp798
asVnight film 
p799
(lp800
(S'2013-09-06'
p801
I8
tp802
asVvampire most wanted 
p803
(lp804
(S'2014-03-07'
p805
I8
tp806
asVthe 6th extinction 
p807
(lp808
(S'2014-08-29'
p809
I4
tp810
asVsleep no more 
p811
(lp812
(S'2012-11-02'
p813
I12
tp814
asVwards of faerie 
p815
(lp816
(S'2012-09-07'
p817
I14
tp818
asVthe october list 
p819
(lp820
(S'2013-10-18'
p821
I10
tp822
asVechoes at dawn 
p823
(lp824
(S'2012-07-20'
p825
I11
tp826
asVwaiting for love 
p827
(lp828
(S'2013-03-08'
p829
I11
tp830
asVeyes only 
p831
(lp832
(S'2015-01-16'
p833
I10
tp834
asVsolitude creek 
p835
(lp836
(S'2015-05-29'
p837
I10
tp838
asVmistress 
p839
(lp840
(S'2013-08-23'
p841
I2
tp842
a(S'2013-08-30'
p843
I3
tp844
a(S'2013-09-06'
p845
I4
tp846
a(S'2013-09-13'
p847
I8
tp848
a(S'2013-09-20'
p849
I15
tp850
asVhudson 
p851
(lp852
(S'2014-07-25'
p853
I8
tp854
asVthe wolves of midwinter 
p855
(lp856
(S'2013-11-01'
p857
I14
tp858
asVtaming the alpha 
p859
(lp860
(S'2014-12-26'
p861
I11
tp862
asVmagic slays 
p863
(lp864
(S'2011-06-17'
p865
I12
tp866
asVstripped 
p867
(lp868
(S'2013-09-20'
p869
I10
tp870
asVwrong 
p871
(lp872
(S'2015-10-30'
p873
I11
tp874
a(S'2015-11-06'
p875
I14
tp876
asVthe end game 
p877
(lp878
(S'2015-10-02'
p879
I5
tp880
asVthe shoemaker\u2019s wife 
p881
(lp882
(S'2012-04-20'
p883
I11
tp884
asVbig sky mountain 
p885
(lp886
(S'2012-08-17'
p887
I9
tp888
asVa killing tide 
p889
(lp890
(S'2011-10-21'
p891
I15
tp892
a(S'2011-10-28'
p893
I12
tp894
asVbest kept secret 
p895
(lp896
(S'2013-05-17'
p897
I3
tp898
a(S'2014-02-14'
p899
I13
tp900
asVride steady 
p901
(lp902
(S'2015-07-17'
p903
I8
tp904
asVthe road to grace 
p905
(lp906
(S'2012-05-25'
p907
I15
tp908
asVplay 
p909
(lp910
(S'2014-04-11'
p911
I11
tp912
asVthe newcomer 
p913
(lp914
(S'2013-07-12'
p915
I4
tp916
a(S'2013-07-19'
p917
I13
tp918
asVprivate l.a. 
p919
(lp920
(S'2014-02-28'
p921
I1
tp922
a(S'2014-03-07'
p923
I2
tp924
a(S'2014-03-14'
p925
I6
tp926
a(S'2014-03-21'
p927
I7
tp928
a(S'2014-03-28'
p929
I12
tp930
asVa perfect blood 
p931
(lp932
(S'2012-03-09'
p933
I3
tp934
asVthrill me 
p935
(lp936
(S'2015-08-14'
p937
I4
tp938
asVshades of gray 
p939
(lp940
(S'2013-01-18'
p941
I11
tp942
asVadmission 
p943
(lp944
(S'2013-04-05'
p945
I15
tp946
asVdry bones 
p947
(lp948
(S'2015-05-29'
p949
I7
tp950
asVwater for elephants 
p951
(lp952
(S'2011-02-18'
p953
I5
tp954
a(S'2011-02-25'
p955
I7
tp956
a(S'2011-03-04'
p957
I4
tp958
a(S'2011-03-11'
p959
I3
tp960
a(S'2011-03-18'
p961
I4
tp962
a(S'2011-03-25'
p963
I1
tp964
a(S'2011-04-01'
p965
I1
tp966
a(S'2011-04-08'
p967
I2
tp968
a(S'2011-04-15'
p969
I3
tp970
a(S'2011-04-22'
p971
I2
tp972
a(S'2011-04-29'
p973
I1
tp974
a(S'2011-05-06'
p975
I1
tp976
a(S'2011-05-13'
p977
I1
tp978
a(S'2011-05-20'
p979
I3
tp980
a(S'2011-05-27'
p981
I1
tp982
a(S'2011-06-03'
p983
I1
tp984
a(S'2011-06-10'
p985
I1
tp986
a(S'2011-06-17'
p987
I6
tp988
a(S'2011-06-24'
p989
I3
tp990
a(S'2011-07-01'
p991
I3
tp992
a(S'2011-07-08'
p993
I4
tp994
a(S'2011-07-15'
p995
I4
tp996
a(S'2011-07-22'
p997
I8
tp998
a(S'2011-07-29'
p999
I12
tp1000
a(S'2011-08-05'
p1001
I12
tp1002
a(S'2011-08-12'
p1003
I11
tp1004
a(S'2011-08-19'
p1005
I12
tp1006
a(S'2011-08-26'
p1007
I14
tp1008
a(S'2011-09-02'
p1009
I10
tp1010
a(S'2011-09-09'
p1011
I4
tp1012
a(S'2012-01-13'
p1013
I9
tp1014
a(S'2012-01-20'
p1015
I12
tp1016
a(S'2012-02-10'
p1017
I15
tp1018
asVbreaking point 
p1019
(lp1020
(S'2013-03-29'
p1021
I9
tp1022
asVfour irresistible rogues 
p1023
(lp1024
(S'2013-07-26'
p1025
I10
tp1026
asVthe space between 
p1027
(lp1028
(S'2014-05-02'
p1029
I3
tp1030
asVthe liar 
p1031
(lp1032
(S'2015-05-01'
p1033
I1
tp1034
a(S'2015-05-08'
p1035
I5
tp1036
a(S'2015-05-15'
p1037
I5
tp1038
a(S'2015-05-22'
p1039
I7
tp1040
a(S'2015-05-29'
p1041
I11
tp1042
a(S'2015-06-05'
p1043
I13
tp1044
asVthe whites 
p1045
(lp1046
(S'2015-03-06'
p1047
I15
tp1048
asVtrust no one 
p1049
(lp1050
(S'2015-01-23'
p1051
I8
tp1052
asVforever us 
p1053
(lp1054
(S'2013-12-13'
p1055
I10
tp1056
asVsimply irresistible 
p1057
(lp1058
(S'2012-09-28'
p1059
I12
tp1060
a(S'2012-10-05'
p1061
I15
tp1062
asVa game of thrones 
p1063
(lp1064
(S'2011-04-29'
p1065
I9
tp1066
a(S'2011-05-06'
p1067
I5
tp1068
a(S'2011-05-13'
p1069
I5
tp1070
a(S'2011-05-20'
p1071
I8
tp1072
a(S'2011-05-27'
p1073
I9
tp1074
a(S'2011-06-03'
p1075
I9
tp1076
a(S'2011-06-10'
p1077
I8
tp1078
a(S'2011-06-17'
p1079
I8
tp1080
a(S'2011-06-24'
p1081
I8
tp1082
a(S'2011-07-01'
p1083
I5
tp1084
a(S'2011-07-08'
p1085
I3
tp1086
a(S'2011-07-15'
p1087
I8
tp1088
a(S'2011-07-22'
p1089
I6
tp1090
a(S'2011-07-29'
p1091
I5
tp1092
a(S'2011-08-05'
p1093
I7
tp1094
a(S'2011-08-12'
p1095
I8
tp1096
a(S'2011-08-19'
p1097
I7
tp1098
a(S'2011-08-26'
p1099
I6
tp1100
a(S'2011-09-02'
p1101
I8
tp1102
a(S'2011-09-09'
p1103
I10
tp1104
a(S'2011-09-23'
p1105
I15
tp1106
a(S'2012-01-06'
p1107
I13
tp1108
a(S'2012-03-30'
p1109
I13
tp1110
a(S'2012-04-06'
p1111
I10
tp1112
a(S'2012-04-13'
p1113
I12
tp1114
a(S'2012-04-20'
p1115
I7
tp1116
a(S'2012-04-27'
p1117
I8
tp1118
a(S'2012-05-04'
p1119
I14
tp1120
a(S'2012-05-18'
p1121
I15
tp1122
a(S'2012-06-01'
p1123
I15
tp1124
a(S'2012-06-08'
p1125
I13
tp1126
a(S'2012-06-15'
p1127
I15
tp1128
a(S'2012-06-22'
p1129
I7
tp1130
a(S'2012-06-29'
p1131
I10
tp1132
a(S'2012-07-06'
p1133
I10
tp1134
a(S'2012-07-20'
p1135
I13
tp1136
a(S'2013-06-21'
p1137
I8
tp1138
a(S'2013-06-28'
p1139
I6
tp1140
a(S'2013-07-05'
p1141
I12
tp1142
a(S'2013-11-29'
p1143
I15
tp1144
a(S'2014-04-25'
p1145
I14
tp1146
a(S'2014-05-02'
p1147
I12
tp1148
a(S'2014-06-27'
p1149
I11
tp1150
a(S'2014-07-04'
p1151
I9
tp1152
a(S'2015-07-03'
p1153
I14
tp1154
asVfriends forever 
p1155
(lp1156
(S'2012-08-10'
p1157
I6
tp1158
a(S'2012-08-17'
p1159
I10
tp1160
asVa land more kind than home 
p1161
(lp1162
(S'2014-04-25'
p1163
I12
tp1164
asVthe ever after of ella and micha 
p1165
(lp1166
(S'2013-12-20'
p1167
I15
tp1168
asVgive in to me 
p1169
(lp1170
(S'2014-02-28'
p1171
I13
tp1172
asVthe mistletoe promise 
p1173
(lp1174
(S'2014-12-05'
p1175
I9
tp1176
asVupside down 
p1177
(lp1178
(S'2014-09-05'
p1179
I5
tp1180
asVgideon\u2019s sword 
p1181
(lp1182
(S'2011-03-11'
p1183
I9
tp1184
asVout of line 
p1185
(lp1186
(S'2013-10-04'
p1187
I10
tp1188
asVi saw her standing there 
p1189
(lp1190
(S'2014-11-21'
p1191
I10
tp1192
asVgiving in 
p1193
(lp1194
(S'2014-05-23'
p1195
I7
tp1196
asVthe power trip 
p1197
(lp1198
(S'2013-03-01'
p1199
I15
tp1200
asVflesh and blood 
p1201
(lp1202
(S'2014-11-28'
p1203
I2
tp1204
a(S'2014-12-05'
p1205
I10
tp1206
a(S'2014-12-12'
p1207
I14
tp1208
a(S'2014-12-19'
p1209
I15
tp1210
a(S'2015-08-28'
p1211
I9
tp1212
asVspice box 
p1213
(lp1214
(S'2014-07-18'
p1215
I9
tp1216
asVwhat it was 
p1217
(lp1218
(S'2012-02-10'
p1219
I13
tp1220
asVkiss of christmas magic 
p1221
(lp1222
(S'2014-11-28'
p1223
I12
tp1224
asVagainst all enemies 
p1225
(lp1226
(S'2011-07-01'
p1227
I2
tp1228
a(S'2011-07-08'
p1229
I5
tp1230
a(S'2011-07-15'
p1231
I11
tp1232
a(S'2011-07-22'
p1233
I11
tp1234
asVcross fire 
p1235
(lp1236
(S'2011-10-21'
p1237
I8
tp1238
a(S'2011-10-28'
p1239
I11
tp1240
asVwhite fire 
p1241
(lp1242
(S'2013-11-29'
p1243
I3
tp1244
a(S'2013-12-06'
p1245
I15
tp1246
asVthe perfect hope 
p1247
(lp1248
(S'2012-11-23'
p1249
I1
tp1250
a(S'2012-11-30'
p1251
I4
tp1252
a(S'2012-12-07'
p1253
I10
tp1254
a(S'2012-12-14'
p1255
I15
tp1256
asVraising steam 
p1257
(lp1258
(S'2014-04-04'
p1259
I10
tp1260
asVinferno 
p1261
(lp1262
(S'2013-05-31'
p1263
I1
tp1264
a(S'2013-06-07'
p1265
I1
tp1266
a(S'2013-06-14'
p1267
I1
tp1268
a(S'2013-06-21'
p1269
I2
tp1270
a(S'2013-06-28'
p1271
I1
tp1272
a(S'2013-07-05'
p1273
I1
tp1274
a(S'2013-07-12'
p1275
I3
tp1276
a(S'2013-07-19'
p1277
I1
tp1278
a(S'2013-07-26'
p1279
I3
tp1280
a(S'2013-08-02'
p1281
I4
tp1282
a(S'2013-08-09'
p1283
I3
tp1284
a(S'2013-08-16'
p1285
I5
tp1286
a(S'2013-08-23'
p1287
I7
tp1288
a(S'2013-08-30'
p1289
I9
tp1290
a(S'2013-09-06'
p1291
I7
tp1292
a(S'2013-09-13'
p1293
I11
tp1294
a(S'2013-09-20'
p1295
I12
tp1296
a(S'2013-09-27'
p1297
I9
tp1298
a(S'2013-10-04'
p1299
I14
tp1300
a(S'2013-12-20'
p1301
I13
tp1302
a(S'2013-12-27'
p1303
I15
tp1304
a(S'2014-01-03'
p1305
I10
tp1306
a(S'2014-01-10'
p1307
I5
tp1308
a(S'2014-05-23'
p1309
I11
tp1310
a(S'2014-05-30'
p1311
I7
tp1312
a(S'2014-06-06'
p1313
I10
tp1314
a(S'2014-06-13'
p1315
I13
tp1316
a(S'2014-06-27'
p1317
I14
tp1318
asVspirit bound 
p1319
(lp1320
(S'2012-01-13'
p1321
I11
tp1322
asVsamurai game 
p1323
(lp1324
(S'2012-07-20'
p1325
I7
tp1326
asVthe magician's assistant 
p1327
(lp1328
(S'2013-05-24'
p1329
I15
tp1330
asVburning dawn 
p1331
(lp1332
(S'2014-05-16'
p1333
I11
tp1334
asVminding frankie 
p1335
(lp1336
(S'2011-03-18'
p1337
I12
tp1338
asVcarter reed 
p1339
(lp1340
(S'2013-10-25'
p1341
I15
tp1342
asVthe lost key 
p1343
(lp1344
(S'2014-10-17'
p1345
I3
tp1346
asVleaving everything most loved 
p1347
(lp1348
(S'2013-04-12'
p1349
I15
tp1350
asVno fortunate son 
p1351
(lp1352
(S'2015-01-16'
p1353
I12
tp1354
asVthe edge of never 
p1355
(lp1356
(S'2012-12-14'
p1357
I12
tp1358
a(S'2012-12-21'
p1359
I9
tp1360
a(S'2012-12-28'
p1361
I12
tp1362
a(S'2013-04-12'
p1363
I14
tp1364
asVwho do you love 
p1365
(lp1366
(S'2015-08-28'
p1367
I4
tp1368
a(S'2015-09-04'
p1369
I12
tp1370
a(S'2015-09-11'
p1371
I15
tp1372
asVfield of prey 
p1373
(lp1374
(S'2014-05-23'
p1375
I2
tp1376
a(S'2014-05-30'
p1377
I2
tp1378
a(S'2014-06-06'
p1379
I4
tp1380
a(S'2014-06-13'
p1381
I6
tp1382
a(S'2014-06-20'
p1383
I9
tp1384
a(S'2014-06-27'
p1385
I10
tp1386
asVthe taming of the queen 
p1387
(lp1388
(S'2015-09-11'
p1389
I10
tp1390
asVkiss and tell 
p1391
(lp1392
(S'2014-07-11'
p1393
I15
tp1394
asVthe mystery woman 
p1395
(lp1396
(S'2013-05-10'
p1397
I9
tp1398
asVthe solomon curse 
p1399
(lp1400
(S'2015-09-18'
p1401
I6
tp1402
asVotherwise engaged 
p1403
(lp1404
(S'2014-05-09'
p1405
I6
tp1406
asVone good dog 
p1407
(lp1408
(S'2012-03-09'
p1409
I13
tp1410
asVcold days 
p1411
(lp1412
(S'2012-12-14'
p1413
I2
tp1414
asVthe boy in the suitcase 
p1415
(lp1416
(S'2012-09-07'
p1417
I10
tp1418
a(S'2012-09-14'
p1419
I12
tp1420
a(S'2013-08-30'
p1421
I6
tp1422
a(S'2013-09-06'
p1423
I15
tp1424
asVthe black ice 
p1425
(lp1426
(S'2011-09-23'
p1427
I13
tp1428
a(S'2011-09-30'
p1429
I6
tp1430
a(S'2011-10-07'
p1431
I12
tp1432
asVkill shot 
p1433
(lp1434
(S'2012-02-24'
p1435
I1
tp1436
a(S'2012-03-02'
p1437
I2
tp1438
a(S'2012-03-09'
p1439
I4
tp1440
a(S'2012-03-16'
p1441
I9
tp1442
a(S'2012-03-23'
p1443
I11
tp1444
a(S'2012-03-30'
p1445
I12
tp1446
a(S'2012-04-06'
p1447
I15
tp1448
asVthe marriage plot 
p1449
(lp1450
(S'2011-10-28'
p1451
I4
tp1452
a(S'2011-11-04'
p1453
I10
tp1454
a(S'2011-11-11'
p1455
I15
tp1456
a(S'2011-11-18'
p1457
I14
tp1458
a(S'2011-11-25'
p1459
I13
tp1460
a(S'2011-12-02'
p1461
I15
tp1462
asVcatch me 
p1463
(lp1464
(S'2012-02-24'
p1465
I2
tp1466
a(S'2012-03-02'
p1467
I7
tp1468
a(S'2012-03-09'
p1469
I14
tp1470
asVuntil we touch 
p1471
(lp1472
(S'2014-07-11'
p1473
I6
tp1474
asVmean streak 
p1475
(lp1476
(S'2014-09-05'
p1477
I3
tp1478
a(S'2014-09-12'
p1479
I8
tp1480
a(S'2014-09-19'
p1481
I7
tp1482
a(S'2014-09-26'
p1483
I7
tp1484
a(S'2014-10-10'
p1485
I10
tp1486
asVone wish 
p1487
(lp1488
(S'2015-03-13'
p1489
I2
tp1490
asVshards of hope 
p1491
(lp1492
(S'2015-06-19'
p1493
I12
tp1494
asVthe enemy inside 
p1495
(lp1496
(S'2015-05-29'
p1497
I15
tp1498
asVmonsters in the dark 
p1499
(lp1500
(S'2015-04-03'
p1501
I15
tp1502
asVgolden son 
p1503
(lp1504
(S'2015-01-23'
p1505
I9
tp1506
asVdark blood 
p1507
(lp1508
(S'2014-09-19'
p1509
I8
tp1510
asVthe lincoln myth 
p1511
(lp1512
(S'2014-06-06'
p1513
I3
tp1514
asVsilver girl 
p1515
(lp1516
(S'2011-07-08'
p1517
I10
tp1518
a(S'2011-07-15'
p1519
I15
tp1520
asVcriminal 
p1521
(lp1522
(S'2012-07-20'
p1523
I6
tp1524
asVcalculated in death 
p1525
(lp1526
(S'2013-03-15'
p1527
I1
tp1528
a(S'2013-03-22'
p1529
I12
tp1530
a(S'2013-03-29'
p1531
I16
tp1532
asVgabriel\u2019s inferno 
p1533
(lp1534
(S'2012-09-21'
p1535
I12
tp1536
asVa god in ruins 
p1537
(lp1538
(S'2015-05-22'
p1539
I9
tp1540
asVhunting eve 
p1541
(lp1542
(S'2013-08-02'
p1543
I5
tp1544
asVarmada 
p1545
(lp1546
(S'2015-07-31'
p1547
I4
tp1548
asVwalk through fire 
p1549
(lp1550
(S'2015-11-13'
p1551
I6
tp1552
asVlive wire 
p1553
(lp1554
(S'2011-03-18'
p1555
I13
tp1556
a(S'2011-04-08'
p1557
I1
tp1558
a(S'2011-04-15'
p1559
I6
tp1560
a(S'2011-04-22'
p1561
I11
tp1562
asVhot pursuit 
p1563
(lp1564
(S'2015-04-24'
p1565
I3
tp1566
a(S'2015-05-01'
p1567
I15
tp1568
asVblack list 
p1569
(lp1570
(S'2012-08-10'
p1571
I7
tp1572
a(S'2012-08-17'
p1573
I12
tp1574
a(S'2012-08-24'
p1575
I11
tp1576
a(S'2012-08-31'
p1577
I9
tp1578
a(S'2012-09-07'
p1579
I9
tp1580
asVyou should have known 
p1581
(lp1582
(S'2014-04-04'
p1583
I14
tp1584
asVfour friends 
p1585
(lp1586
(S'2014-04-11'
p1587
I14
tp1588
asVnypd red 2 
p1589
(lp1590
(S'2014-04-11'
p1591
I2
tp1592
a(S'2014-04-18'
p1593
I6
tp1594
a(S'2014-04-25'
p1595
I4
tp1596
a(S'2014-05-02'
p1597
I4
tp1598
a(S'2014-05-09'
p1599
I9
tp1600
a(S'2014-05-16'
p1601
I15
tp1602
asVthe mistletoe inn 
p1603
(lp1604
(S'2015-12-04'
p1605
I11
tp1606
asVking and maxwell 
p1607
(lp1608
(S'2013-12-06'
p1609
I2
tp1610
a(S'2013-12-13'
p1611
I4
tp1612
a(S'2013-12-20'
p1613
I7
tp1614
a(S'2013-12-27'
p1615
I9
tp1616
a(S'2014-01-03'
p1617
I9
tp1618
a(S'2014-01-10'
p1619
I11
tp1620
a(S'2014-01-17'
p1621
I13
tp1622
asVcloud atlas 
p1623
(lp1624
(S'2012-10-26'
p1625
I14
tp1626
a(S'2012-11-09'
p1627
I11
tp1628
a(S'2012-11-16'
p1629
I12
tp1630
asVthe marriage mistake 
p1631
(lp1632
(S'2012-11-23'
p1633
I10
tp1634
asVjudgment call 
p1635
(lp1636
(S'2012-08-10'
p1637
I14
tp1638
asVa fool's gold christmas 
p1639
(lp1640
(S'2012-10-12'
p1641
I13
tp1642
asVwicked firsts 
p1643
(lp1644
(S'2013-09-06'
p1645
I3
tp1646
asVthe lake house 
p1647
(lp1648
(S'2015-11-06'
p1649
I6
tp1650
asVsweet ache 
p1651
(lp1652
(S'2015-06-19'
p1653
I11
tp1654
asVhome front 
p1655
(lp1656
(S'2012-02-17'
p1657
I1
tp1658
a(S'2012-02-24'
p1659
I11
tp1660
asVobsidian 
p1661
(lp1662
(S'2012-09-14'
p1663
I10
tp1664
asVfall of giants 
p1665
(lp1666
(S'2012-10-05'
p1667
I11
tp1668
a(S'2012-10-12'
p1669
I14
tp1670
asVthe darkest craving 
p1671
(lp1672
(S'2013-08-16'
p1673
I12
tp1674
asVwinter's tale 
p1675
(lp1676
(S'2012-09-28'
p1677
I14
tp1678
a(S'2014-02-28'
p1679
I10
tp1680
asVthe book of life 
p1681
(lp1682
(S'2014-08-01'
p1683
I1
tp1684
a(S'2014-08-08'
p1685
I6
tp1686
a(S'2014-08-15'
p1687
I12
tp1688
a(S'2014-08-29'
p1689
I15
tp1690
asVdreams of a dark warrior 
p1691
(lp1692
(S'2011-03-04'
p1693
I8
tp1694
asVender's game 
p1695
(lp1696
(S'2013-05-24'
p1697
I13
tp1698
a(S'2013-05-31'
p1699
I13
tp1700
a(S'2013-06-07'
p1701
I10
tp1702
a(S'2013-06-14'
p1703
I15
tp1704
a(S'2013-08-02'
p1705
I15
tp1706
a(S'2013-08-09'
p1707
I14
tp1708
a(S'2013-08-23'
p1709
I12
tp1710
a(S'2013-08-30'
p1711
I13
tp1712
a(S'2013-09-06'
p1713
I14
tp1714
a(S'2013-09-20'
p1715
I14
tp1716
a(S'2013-09-27'
p1717
I12
tp1718
a(S'2013-10-18'
p1719
I12
tp1720
a(S'2013-10-25'
p1721
I8
tp1722
a(S'2013-11-01'
p1723
I7
tp1724
a(S'2013-11-08'
p1725
I3
tp1726
a(S'2013-11-15'
p1727
I3
tp1728
a(S'2013-11-22'
p1729
I3
tp1730
a(S'2013-11-29'
p1731
I8
tp1732
a(S'2013-12-06'
p1733
I10
tp1734
a(S'2013-12-13'
p1735
I12
tp1736
a(S'2013-12-20'
p1737
I14
tp1738
a(S'2014-01-03'
p1739
I15
tp1740
asVtom clancy full force and effect 
p1741
(lp1742
(S'2014-12-19'
p1743
I3
tp1744
a(S'2014-12-26'
p1745
I9
tp1746
a(S'2015-01-02'
p1747
I8
tp1748
a(S'2015-01-09'
p1749
I9
tp1750
asVvictims 
p1751
(lp1752
(S'2012-03-16'
p1753
I4
tp1754
a(S'2012-03-23'
p1755
I13
tp1756
asVnever never 
p1757
(lp1758
(S'2015-05-29'
p1759
I12
tp1760
asVstorm front 
p1761
(lp1762
(S'2013-10-25'
p1763
I1
tp1764
a(S'2013-11-01'
p1765
I9
tp1766
a(S'2013-11-08'
p1767
I9
tp1768
a(S'2014-05-30'
p1769
I14
tp1770
asVthe racketeer 
p1771
(lp1772
(S'2012-11-09'
p1773
I1
tp1774
a(S'2012-11-16'
p1775
I1
tp1776
a(S'2012-11-23'
p1777
I2
tp1778
a(S'2012-11-30'
p1779
I3
tp1780
a(S'2012-12-07'
p1781
I4
tp1782
a(S'2012-12-14'
p1783
I5
tp1784
a(S'2012-12-21'
p1785
I4
tp1786
a(S'2012-12-28'
p1787
I2
tp1788
a(S'2013-01-04'
p1789
I2
tp1790
a(S'2013-01-11'
p1791
I6
tp1792
a(S'2013-01-18'
p1793
I9
tp1794
a(S'2013-01-25'
p1795
I12
tp1796
a(S'2013-02-01'
p1797
I13
tp1798
a(S'2013-02-08'
p1799
I11
tp1800
a(S'2013-09-13'
p1801
I15
tp1802
a(S'2013-09-20'
p1803
I9
tp1804
a(S'2013-09-27'
p1805
I7
tp1806
a(S'2013-10-04'
p1807
I9
tp1808
a(S'2013-10-11'
p1809
I11
tp1810
a(S'2013-10-18'
p1811
I8
tp1812
a(S'2013-10-25'
p1813
I13
tp1814
a(S'2013-11-08'
p1815
I14
tp1816
asVredwood bend 
p1817
(lp1818
(S'2012-03-16'
p1819
I3
tp1820
a(S'2012-03-30'
p1821
I14
tp1822
asVstill the one 
p1823
(lp1824
(S'2015-04-24'
p1825
I13
tp1826
asVwildest dreams 
p1827
(lp1828
(S'2015-09-11'
p1829
I5
tp1830
asVmarrying daisy bellamy 
p1831
(lp1832
(S'2011-02-18'
p1833
I9
tp1834
a(S'2011-02-25'
p1835
I13
tp1836
asVa sweet life 
p1837
(lp1838
(S'2014-05-16'
p1839
I12
tp1840
asVa banquet of consequences 
p1841
(lp1842
(S'2015-11-13'
p1843
I5
tp1844
asVfalling in love 
p1845
(lp1846
(S'2015-04-24'
p1847
I11
tp1848
asVposeidon's arrow 
p1849
(lp1850
(S'2012-11-23'
p1851
I3
tp1852
a(S'2012-11-30'
p1853
I13
tp1854
asVsilver linings 
p1855
(lp1856
(S'2015-08-28'
p1857
I3
tp1858
asVwith this kiss 
p1859
(lp1860
(S'2013-04-05'
p1861
I16
tp1862
asVspring fever 
p1863
(lp1864
(S'2012-06-22'
p1865
I14
tp1866
asVstate of wonder 
p1867
(lp1868
(S'2011-06-24'
p1869
I4
tp1870
a(S'2011-07-01'
p1871
I6
tp1872
a(S'2011-07-08'
p1873
I7
tp1874
a(S'2011-07-15'
p1875
I6
tp1876
a(S'2011-07-22'
p1877
I9
tp1878
a(S'2011-07-29'
p1879
I9
tp1880
a(S'2011-08-05'
p1881
I14
tp1882
asVthe arrangement 15 
p1883
(lp1884
(S'2014-07-04'
p1885
I15
tp1886
asVfriction 
p1887
(lp1888
(S'2015-09-04'
p1889
I1
tp1890
a(S'2015-09-11'
p1891
I7
tp1892
a(S'2015-09-18'
p1893
I11
tp1894
a(S'2015-09-25'
p1895
I10
tp1896
asVbinding agreement 
p1897
(lp1898
(S'2013-06-07'
p1899
I9
tp1900
asVthe bone clocks 
p1901
(lp1902
(S'2014-09-19'
p1903
I10
tp1904
asVthe immortal who loved me 
p1905
(lp1906
(S'2015-03-13'
p1907
I14
tp1908
asVthe next best thing 
p1909
(lp1910
(S'2012-07-20'
p1911
I8
tp1912
a(S'2012-07-27'
p1913
I14
tp1914
asVtake me 
p1915
(lp1916
(S'2013-12-20'
p1917
I10
tp1918
asVcrystal gardens 
p1919
(lp1920
(S'2012-05-11'
p1921
I12
tp1922
asVsand castle bay 
p1923
(lp1924
(S'2013-04-12'
p1925
I12
tp1926
asVrobert b. parker\u2019s killing the blues 
p1927
(lp1928
(S'2011-09-30'
p1929
I12
tp1930
asVsuicide run 
p1931
(lp1932
(S'2011-10-14'
p1933
I11
tp1934
a(S'2011-10-21'
p1935
I13
tp1936
a(S'2011-10-28'
p1937
I15
tp1938
asVyou were mine 
p1939
(lp1940
(S'2014-12-19'
p1941
I12
tp1942
asVveronica mars: the thousand-dollar tan line 
p1943
(lp1944
(S'2014-04-11'
p1945
I9
tp1946
asVthe undead pool 
p1947
(lp1948
(S'2014-03-14'
p1949
I4
tp1950
asVthe eye of heaven 
p1951
(lp1952
(S'2014-09-19'
p1953
I3
tp1954
asVwind chime point 
p1955
(lp1956
(S'2013-05-17'
p1957
I5
tp1958
asVall summer long 
p1959
(lp1960
(S'2012-08-17'
p1961
I8
tp1962
asVenvy 
p1963
(lp1964
(S'2011-09-23'
p1965
I10
tp1966
a(S'2013-09-13'
p1967
I12
tp1968
asVrainshadow road 
p1969
(lp1970
(S'2012-03-16'
p1971
I14
tp1972
asVbeautiful redemption 
p1973
(lp1974
(S'2015-02-13'
p1975
I7
tp1976
asVthe bone tree 
p1977
(lp1978
(S'2015-05-08'
p1979
I3
tp1980
a(S'2015-05-15'
p1981
I10
tp1982
a(S'2015-05-22'
p1983
I11
tp1984
asVrowdy 
p1985
(lp1986
(S'2014-11-07'
p1987
I8
tp1988
asVback to blood 
p1989
(lp1990
(S'2012-11-09'
p1991
I13
tp1992
asVquinn 
p1993
(lp1994
(S'2011-07-29'
p1995
I6
tp1996
asVson of stone 
p1997
(lp1998
(S'2011-10-07'
p1999
I5
tp2000
asVugly love 
p2001
(lp2002
(S'2014-08-22'
p2003
I6
tp2004
asVhell's corner 
p2005
(lp2006
(S'2011-07-22'
p2007
I13
tp2008
asVghost story 
p2009
(lp2010
(S'2011-08-12'
p2011
I2
tp2012
a(S'2011-08-19'
p2013
I14
tp2014
asVdeath comes to pemberley 
p2015
(lp2016
(S'2011-12-23'
p2017
I7
tp2018
a(S'2011-12-30'
p2019
I10
tp2020
a(S'2012-01-06'
p2021
I7
tp2022
a(S'2012-02-03'
p2023
I15
tp2024
asVonce in a lifetime 
p2025
(lp2026
(S'2014-03-07'
p2027
I9
tp2028
asVthe will 
p2029
(lp2030
(S'2014-04-25'
p2031
I11
tp2032
asVthe matchmaker 
p2033
(lp2034
(S'2014-06-27'
p2035
I5
tp2036
asVgone 
p2037
(lp2038
(S'2013-10-18'
p2039
I1
tp2040
a(S'2013-10-25'
p2041
I6
tp2042
a(S'2013-11-01'
p2043
I12
tp2044
a(S'2013-11-08'
p2045
I12
tp2046
asVlover at last 
p2047
(lp2048
(S'2013-04-12'
p2049
I1
tp2050
a(S'2013-04-19'
p2051
I19
tp2052
asVtreasure your love 
p2053
(lp2054
(S'2013-11-01'
p2055
I11
tp2056
a(S'2013-11-08'
p2057
I11
tp2058
asVwanted 
p2059
(lp2060
(S'2014-01-24'
p2061
I14
tp2062
asVall you need is love 
p2063
(lp2064
(S'2014-02-21'
p2065
I14
tp2066
asVthe assassination option 
p2067
(lp2068
(S'2015-01-16'
p2069
I13
tp2070
asVred mist 
p2071
(lp2072
(S'2011-12-23'
p2073
I1
tp2074
a(S'2011-12-30'
p2075
I7
tp2076
a(S'2012-01-06'
p2077
I9
tp2078
a(S'2012-01-13'
p2079
I14
tp2080
a(S'2012-01-20'
p2081
I15
tp2082
asVtouch and go 
p2083
(lp2084
(S'2013-02-22'
p2085
I2
tp2086
a(S'2013-03-01'
p2087
I8
tp2088
a(S'2013-03-08'
p2089
I7
tp2090
asVdamascus countdown 
p2091
(lp2092
(S'2013-03-22'
p2093
I15
tp2094
asVthe bet 
p2095
(lp2096
(S'2013-04-19'
p2097
I16
tp2098
a(S'2013-04-26'
p2099
I1
tp2100
a(S'2013-05-03'
p2101
I4
tp2102
a(S'2013-05-10'
p2103
I7
tp2104
a(S'2013-05-17'
p2105
I8
tp2106
a(S'2013-05-24'
p2107
I6
tp2108
a(S'2013-05-31'
p2109
I10
tp2110
asVthe fixer 
p2111
(lp2112
(S'2015-06-26'
p2113
I15
tp2114
asVamerican gods 
p2115
(lp2116
(S'2012-02-03'
p2117
I6
tp2118
asVmanwhore 
p2119
(lp2120
(S'2015-04-10'
p2121
I15
tp2122
asVforeign affairs 
p2123
(lp2124
(S'2015-10-30'
p2125
I5
tp2126
asVdeserves to die 
p2127
(lp2128
(S'2014-08-15'
p2129
I11
tp2130
asVrogue lawyer 
p2131
(lp2132
(S'2015-11-06'
p2133
I1
tp2134
a(S'2015-11-13'
p2135
I1
tp2136
a(S'2015-11-20'
p2137
I4
tp2138
a(S'2015-11-27'
p2139
I1
tp2140
a(S'2015-12-04'
p2141
I3
tp2142
a(S'2015-12-11'
p2143
I5
tp2144
a(S'2015-12-18'
p2145
I5
tp2146
a(S'2015-12-25'
p2147
I1
tp2148
asVstill alice 
p2149
(lp2150
(S'2015-01-23'
p2151
I14
tp2152
a(S'2015-01-30'
p2153
I8
tp2154
a(S'2015-02-06'
p2155
I7
tp2156
a(S'2015-02-13'
p2157
I11
tp2158
a(S'2015-02-20'
p2159
I12
tp2160
a(S'2015-03-06'
p2161
I14
tp2162
a(S'2015-03-13'
p2163
I10
tp2164
a(S'2015-03-20'
p2165
I10
tp2166
a(S'2015-03-27'
p2167
I11
tp2168
a(S'2015-04-03'
p2169
I11
tp2170
a(S'2015-04-10'
p2171
I13
tp2172
asVthe guilty 
p2173
(lp2174
(S'2015-12-04'
p2175
I2
tp2176
a(S'2015-12-11'
p2177
I3
tp2178
a(S'2015-12-18'
p2179
I6
tp2180
a(S'2015-12-25'
p2181
I3
tp2182
asVthe patriot threat 
p2183
(lp2184
(S'2015-04-17'
p2185
I4
tp2186
asVthe black box 
p2187
(lp2188
(S'2012-12-14'
p2189
I1
tp2190
a(S'2012-12-21'
p2191
I6
tp2192
a(S'2012-12-28'
p2193
I9
tp2194
a(S'2013-01-04'
p2195
I10
tp2196
a(S'2013-05-03'
p2197
I13
tp2198
asViced 
p2199
(lp2200
(S'2012-11-16'
p2201
I13
tp2202
asVlover reborn 
p2203
(lp2204
(S'2012-04-13'
p2205
I4
tp2206
asVthe hidden 
p2207
(lp2208
(S'2015-10-16'
p2209
I15
tp2210
asVone more chance 
p2211
(lp2212
(S'2014-09-19'
p2213
I11
tp2214
asVwhere we belong 
p2215
(lp2216
(S'2012-08-10'
p2217
I5
tp2218
a(S'2012-08-17'
p2219
I7
tp2220
a(S'2012-08-24'
p2221
I7
tp2222
a(S'2012-08-31'
p2223
I7
tp2224
a(S'2012-09-07'
p2225
I7
tp2226
a(S'2012-09-14'
p2227
I13
tp2228
asV1105 yakima street 
p2229
(lp2230
(S'2011-09-16'
p2231
I3
tp2232
a(S'2011-09-23'
p2233
I6
tp2234
a(S'2011-09-30'
p2235
I9
tp2236
a(S'2011-10-07'
p2237
I14
tp2238
asVdown to you 
p2239
(lp2240
(S'2012-10-19'
p2241
I12
tp2242
a(S'2012-10-26'
p2243
I12
tp2244
a(S'2012-11-02'
p2245
I15
tp2246
asVriver marked 
p2247
(lp2248
(S'2011-03-18'
p2249
I3
tp2250
asVreckless 
p2251
(lp2252
(S'2013-03-22'
p2253
I1
tp2254
asVchina dolls 
p2255
(lp2256
(S'2014-06-20'
p2257
I15
tp2258
asVdepraved heart 
p2259
(lp2260
(S'2015-11-13'
p2261
I2
tp2262
a(S'2015-11-20'
p2263
I10
tp2264
asVflight behavior 
p2265
(lp2266
(S'2012-11-23'
p2267
I9
tp2268
asVafter you 
p2269
(lp2270
(S'2015-10-16'
p2271
I3
tp2272
a(S'2015-10-23'
p2273
I10
tp2274
a(S'2015-10-30'
p2275
I13
tp2276
asVthis girl 
p2277
(lp2278
(S'2013-05-17'
p2279
I10
tp2280
asVcuba straits 
p2281
(lp2282
(S'2015-04-10'
p2283
I14
tp2284
asVhopeless 
p2285
(lp2286
(S'2013-01-11'
p2287
I5
tp2288
a(S'2013-01-18'
p2289
I2
tp2290
a(S'2013-01-25'
p2291
I2
tp2292
a(S'2013-02-01'
p2293
I2
tp2294
a(S'2013-02-08'
p2295
I4
tp2296
a(S'2013-02-15'
p2297
I8
tp2298
a(S'2013-02-22'
p2299
I14
tp2300
asVthe homecoming 
p2301
(lp2302
(S'2014-09-12'
p2303
I2
tp2304
asVthe hurricane sisters 
p2305
(lp2306
(S'2014-06-20'
p2307
I4
tp2308
asVall the light we cannot see 
p2309
(lp2310
(S'2014-06-13'
p2311
I11
tp2312
a(S'2014-06-27'
p2313
I13
tp2314
a(S'2014-08-29'
p2315
I12
tp2316
a(S'2014-09-05'
p2317
I15
tp2318
a(S'2014-10-31'
p2319
I9
tp2320
a(S'2014-11-07'
p2321
I7
tp2322
a(S'2014-11-14'
p2323
I14
tp2324
a(S'2014-11-21'
p2325
I7
tp2326
a(S'2014-11-28'
p2327
I8
tp2328
a(S'2014-12-05'
p2329
I11
tp2330
a(S'2014-12-12'
p2331
I9
tp2332
a(S'2014-12-19'
p2333
I7
tp2334
a(S'2014-12-26'
p2335
I1
tp2336
a(S'2015-01-02'
p2337
I3
tp2338
a(S'2015-01-09'
p2339
I2
tp2340
a(S'2015-01-16'
p2341
I1
tp2342
a(S'2015-01-23'
p2343
I1
tp2344
a(S'2015-01-30'
p2345
I4
tp2346
a(S'2015-02-06'
p2347
I2
tp2348
a(S'2015-02-13'
p2349
I4
tp2350
a(S'2015-02-20'
p2351
I5
tp2352
a(S'2015-02-27'
p2353
I7
tp2354
a(S'2015-03-06'
p2355
I5
tp2356
a(S'2015-03-13'
p2357
I8
tp2358
a(S'2015-03-20'
p2359
I3
tp2360
a(S'2015-03-27'
p2361
I4
tp2362
a(S'2015-04-03'
p2363
I3
tp2364
a(S'2015-04-10'
p2365
I5
tp2366
a(S'2015-04-17'
p2367
I7
tp2368
a(S'2015-04-24'
p2369
I5
tp2370
a(S'2015-05-01'
p2371
I6
tp2372
a(S'2015-05-08'
p2373
I4
tp2374
a(S'2015-05-15'
p2375
I4
tp2376
a(S'2015-05-22'
p2377
I4
tp2378
a(S'2015-05-29'
p2379
I4
tp2380
a(S'2015-06-05'
p2381
I3
tp2382
a(S'2015-06-12'
p2383
I4
tp2384
a(S'2015-06-19'
p2385
I4
tp2386
a(S'2015-06-26'
p2387
I4
tp2388
a(S'2015-07-03'
p2389
I8
tp2390
a(S'2015-07-10'
p2391
I7
tp2392
a(S'2015-07-17'
p2393
I5
tp2394
a(S'2015-07-24'
p2395
I7
tp2396
a(S'2015-07-31'
p2397
I5
tp2398
a(S'2015-08-07'
p2399
I5
tp2400
a(S'2015-08-14'
p2401
I7
tp2402
a(S'2015-08-21'
p2403
I6
tp2404
a(S'2015-08-28'
p2405
I7
tp2406
a(S'2015-09-04'
p2407
I10
tp2408
a(S'2015-09-11'
p2409
I12
tp2410
a(S'2015-09-18'
p2411
I14
tp2412
a(S'2015-09-25'
p2413
I9
tp2414
a(S'2015-10-02'
p2415
I11
tp2416
a(S'2015-10-09'
p2417
I6
tp2418
a(S'2015-10-16'
p2419
I13
tp2420
a(S'2015-10-23'
p2421
I11
tp2422
a(S'2015-10-30'
p2423
I10
tp2424
a(S'2015-11-06'
p2425
I13
tp2426
a(S'2015-11-20'
p2427
I12
tp2428
a(S'2015-11-27'
p2429
I13
tp2430
a(S'2015-12-04'
p2431
I14
tp2432
a(S'2015-12-11'
p2433
I10
tp2434
a(S'2015-12-18'
p2435
I15
tp2436
a(S'2015-12-25'
p2437
I9
tp2438
asVbecause you are mine part viii 
p2439
(lp2440
(S'2012-10-05'
p2441
I14
tp2442
asVwedding night 
p2443
(lp2444
(S'2013-05-10'
p2445
I8
tp2446
asVthe night circus 
p2447
(lp2448
(S'2011-09-30'
p2449
I5
tp2450
a(S'2011-10-07'
p2451
I9
tp2452
a(S'2011-10-14'
p2453
I9
tp2454
a(S'2011-10-21'
p2455
I11
tp2456
a(S'2011-10-28'
p2457
I14
tp2458
asVthe baker's daughter 
p2459
(lp2460
(S'2014-04-18'
p2461
I12
tp2462
a(S'2015-05-08'
p2463
I15
tp2464
asVthe silkworm 
p2465
(lp2466
(S'2014-07-04'
p2467
I2
tp2468
a(S'2014-07-11'
p2469
I4
tp2470
a(S'2014-07-18'
p2471
I3
tp2472
a(S'2014-07-25'
p2473
I7
tp2474
a(S'2014-08-01'
p2475
I10
tp2476
a(S'2014-08-08'
p2477
I13
tp2478
asVagenda 21 
p2479
(lp2480
(S'2012-12-07'
p2481
I7
tp2482
a(S'2012-12-14'
p2483
I13
tp2484
asVthe confession 
p2485
(lp2486
(S'2011-02-18'
p2487
I8
tp2488
a(S'2011-02-25'
p2489
I10
tp2490
a(S'2011-03-04'
p2491
I11
tp2492
a(S'2011-08-05'
p2493
I9
tp2494
a(S'2011-08-12'
p2495
I7
tp2496
a(S'2011-08-19'
p2497
I9
tp2498
a(S'2011-08-26'
p2499
I10
tp2500
a(S'2011-09-02'
p2501
I9
tp2502
a(S'2011-09-09'
p2503
I14
tp2504
asVfirst sight 
p2505
(lp2506
(S'2013-08-02'
p2507
I3
tp2508
a(S'2013-08-09'
p2509
I15
tp2510
asVwinners 
p2511
(lp2512
(S'2013-11-15'
p2513
I6
tp2514
asVall fall down 
p2515
(lp2516
(S'2014-07-04'
p2517
I3
tp2518
a(S'2014-07-11'
p2519
I9
tp2520
a(S'2014-07-18'
p2521
I11
tp2522
a(S'2014-07-25'
p2523
I12
tp2524
asVown the wind 
p2525
(lp2526
(S'2013-04-19'
p2527
I13
tp2528
asVharvest moon 
p2529
(lp2530
(S'2011-03-11'
p2531
I14
tp2532
asVmr. mercedes 
p2533
(lp2534
(S'2014-06-20'
p2535
I1
tp2536
a(S'2014-06-27'
p2537
I2
tp2538
a(S'2014-07-04'
p2539
I4
tp2540
a(S'2014-07-11'
p2541
I8
tp2542
a(S'2014-07-18'
p2543
I10
tp2544
a(S'2014-07-25'
p2545
I11
tp2546
a(S'2014-08-01'
p2547
I15
tp2548
asVcelebrity in death 
p2549
(lp2550
(S'2012-03-09'
p2551
I1
tp2552
a(S'2012-03-16'
p2553
I13
tp2554
a(S'2012-03-23'
p2555
I15
tp2556
asVthe last witness 
p2557
(lp2558
(S'2013-08-23'
p2559
I13
tp2560
asV12th of never 
p2561
(lp2562
(S'2013-05-17'
p2563
I1
tp2564
a(S'2013-05-24'
p2565
I4
tp2566
a(S'2013-05-31'
p2567
I4
tp2568
a(S'2013-06-07'
p2569
I4
tp2570
a(S'2013-06-14'
p2571
I10
tp2572
a(S'2013-06-21'
p2573
I14
tp2574
asVsimple perfection 
p2575
(lp2576
(S'2013-10-11'
p2577
I8
tp2578
asVlove after dark 
p2579
(lp2580
(S'2015-09-04'
p2581
I14
tp2582
asVmusic of the heart 
p2583
(lp2584
(S'2013-04-19'
p2585
I18
tp2586
asVconcealed in death 
p2587
(lp2588
(S'2014-03-07'
p2589
I1
tp2590
a(S'2014-03-14'
p2591
I8
tp2592
a(S'2014-03-21'
p2593
I11
tp2594
asVi've got your number 
p2595
(lp2596
(S'2012-03-02'
p2597
I3
tp2598
a(S'2012-03-09'
p2599
I9
tp2600
asVscandalous brides 
p2601
(lp2602
(S'2014-01-31'
p2603
I4
tp2604
asVpulse 
p2605
(lp2606
(S'2013-07-26'
p2607
I12
tp2608
a(S'2013-08-02'
p2609
I9
tp2610
a(S'2013-08-09'
p2611
I10
tp2612
asVthe minor adjustment beauty salon 
p2613
(lp2614
(S'2013-11-22'
p2615
I11
tp2616
asVgabriel's redemption 
p2617
(lp2618
(S'2013-12-20'
p2619
I8
tp2620
asVthe hero 
p2621
(lp2622
(S'2013-09-13'
p2623
I1
tp2624
a(S'2013-09-20'
p2625
I13
tp2626
asVmended 
p2627
(lp2628
(S'2015-06-12'
p2629
I11
tp2630
asVthe summer's end 
p2631
(lp2632
(S'2015-06-05'
p2633
I15
tp2634
asVstay close 
p2635
(lp2636
(S'2012-04-06'
p2637
I3
tp2638
a(S'2012-04-13'
p2639
I9
tp2640
a(S'2012-04-20'
p2641
I12
tp2642
a(S'2012-04-27'
p2643
I15
tp2644
asVdark witch 
p2645
(lp2646
(S'2013-11-15'
p2647
I1
tp2648
a(S'2013-11-22'
p2649
I4
tp2650
a(S'2013-11-29'
p2651
I7
tp2652
a(S'2013-12-06'
p2653
I7
tp2654
a(S'2013-12-13'
p2655
I11
tp2656
a(S'2014-01-10'
p2657
I15
tp2658
asVa dangerous place 
p2659
(lp2660
(S'2015-04-03'
p2661
I5
tp2662
asVodd apocalypse 
p2663
(lp2664
(S'2012-08-17'
p2665
I5
tp2666
asVbetrayed 
p2667
(lp2668
(S'2014-12-12'
p2669
I11
tp2670
asVuntil the end of time 
p2671
(lp2672
(S'2013-02-15'
p2673
I2
tp2674
a(S'2013-02-22'
p2675
I13
tp2676
asVwrong bed right guy 
p2677
(lp2678
(S'2012-09-07'
p2679
I15
tp2680
a(S'2012-09-21'
p2681
I13
tp2682
asVhearts aflame 
p2683
(lp2684
(S'2011-09-09'
p2685
I15
tp2686
asVthe last boyfriend 
p2687
(lp2688
(S'2012-05-18'
p2689
I4
tp2690
a(S'2012-05-25'
p2691
I5
tp2692
a(S'2012-06-01'
p2693
I9
tp2694
a(S'2012-06-08'
p2695
I10
tp2696
asVladies' night 
p2697
(lp2698
(S'2013-06-21'
p2699
I12
tp2700
asVfatal jeopardy 
p2701
(lp2702
(S'2014-04-11'
p2703
I8
tp2704
asVthe king's curse 
p2705
(lp2706
(S'2014-09-26'
p2707
I10
tp2708
asVprivate: #1 suspect 
p2709
(lp2710
(S'2012-01-20'
p2711
I1
tp2712
a(S'2012-01-27'
p2713
I6
tp2714
a(S'2012-02-03'
p2715
I5
tp2716
a(S'2012-02-10'
p2717
I6
tp2718
a(S'2012-02-17'
p2719
I6
tp2720
a(S'2012-02-24'
p2721
I6
tp2722
a(S'2012-03-02'
p2723
I9
tp2724
asVall in 
p2725
(lp2726
(S'2012-11-30'
p2727
I7
tp2728
a(S'2012-12-07'
p2729
I14
tp2730
asVnight broken 
p2731
(lp2732
(S'2014-03-28'
p2733
I1
tp2734
asVseduced 
p2735
(lp2736
(S'2013-09-20'
p2737
I5
tp2738
asVwhere i belong 
p2739
(lp2740
(S'2014-07-25'
p2741
I13
tp2742
asVpossession 
p2743
(lp2744
(S'2013-10-18'
p2745
I13
tp2746
asVthe mill river recluse 
p2747
(lp2748
(S'2011-09-09'
p2749
I8
tp2750
a(S'2011-09-16'
p2751
I5
tp2752
a(S'2011-09-23'
p2753
I3
tp2754
a(S'2011-09-30'
p2755
I3
tp2756
a(S'2011-10-07'
p2757
I3
tp2758
a(S'2011-10-14'
p2759
I4
tp2760
a(S'2011-10-21'
p2761
I4
tp2762
a(S'2011-10-28'
p2763
I5
tp2764
a(S'2011-11-04'
p2765
I7
tp2766
a(S'2011-11-11'
p2767
I12
tp2768
a(S'2012-02-10'
p2769
I14
tp2770
a(S'2013-09-27'
p2771
I10
tp2772
asVthe creed legacy 
p2773
(lp2774
(S'2011-07-15'
p2775
I7
tp2776
asVwinter of the world 
p2777
(lp2778
(S'2012-10-05'
p2779
I1
tp2780
a(S'2012-10-12'
p2781
I6
tp2782
a(S'2012-10-19'
p2783
I8
tp2784
a(S'2012-10-26'
p2785
I10
tp2786
asVthe mistake 
p2787
(lp2788
(S'2015-05-15'
p2789
I11
tp2790
asVthe son 
p2791
(lp2792
(S'2014-05-30'
p2793
I13
tp2794
asVcarnal curiosity 
p2795
(lp2796
(S'2014-04-25'
p2797
I1
tp2798
a(S'2014-05-02'
p2799
I14
tp2800
asVlocke 
p2801
(lp2802
(S'2014-10-17'
p2803
I15
tp2804
asVthe expats 
p2805
(lp2806
(S'2012-03-30'
p2807
I15
tp2808
asVdark ghost 
p2809
(lp2810
(S'2015-09-18'
p2811
I9
tp2812
asVparis 
p2813
(lp2814
(S'2013-05-10'
p2815
I14
tp2816
asVaccused 
p2817
(lp2818
(S'2013-11-15'
p2819
I11
tp2820
asVdirty rowdy thing 
p2821
(lp2822
(S'2014-11-21'
p2823
I15
tp2824
asVhell's foundations quiver 
p2825
(lp2826
(S'2015-10-30'
p2827
I14
tp2828
asVthe ugly duchess 
p2829
(lp2830
(S'2012-09-14'
p2831
I9
tp2832
asVa wanted man 
p2833
(lp2834
(S'2012-09-28'
p2835
I1
tp2836
a(S'2012-10-05'
p2837
I6
tp2838
a(S'2012-10-12'
p2839
I7
tp2840
a(S'2012-10-19'
p2841
I11
tp2842
a(S'2012-10-26'
p2843
I11
tp2844
a(S'2013-06-21'
p2845
I15
tp2846
asVtwice tempted 
p2847
(lp2848
(S'2013-04-12'
p2849
I5
tp2850
asVsweet tooth 
p2851
(lp2852
(S'2012-11-30'
p2853
I8
tp2854
asVtwo of a kind 
p2855
(lp2856
(S'2013-07-12'
p2857
I9
tp2858
asVcold-hearted rake 
p2859
(lp2860
(S'2015-11-13'
p2861
I10
tp2862
asVunnatural acts 
p2863
(lp2864
(S'2012-05-04'
p2865
I8
tp2866
asVhotshot 
p2867
(lp2868
(S'2013-08-23'
p2869
I5
tp2870
asVany man of mine 
p2871
(lp2872
(S'2011-05-13'
p2873
I13
tp2874
asVlost december 
p2875
(lp2876
(S'2011-11-18'
p2877
I13
tp2878
asVblackberry winter 
p2879
(lp2880
(S'2012-11-16'
p2881
I14
tp2882
asVmoonlight cove 
p2883
(lp2884
(S'2011-05-13'
p2885
I12
tp2886
asVtom clancy: commander in chief 
p2887
(lp2888
(S'2015-12-18'
p2889
I2
tp2890
a(S'2015-12-25'
p2891
I6
tp2892
asVsafe haven 
p2893
(lp2894
(S'2011-08-19'
p2895
I10
tp2896
a(S'2011-08-26'
p2897
I11
tp2898
a(S'2011-09-02'
p2899
I7
tp2900
a(S'2013-01-04'
p2901
I4
tp2902
a(S'2013-01-11'
p2903
I1
tp2904
a(S'2013-01-18'
p2905
I1
tp2906
a(S'2013-01-25'
p2907
I4
tp2908
a(S'2013-02-01'
p2909
I1
tp2910
a(S'2013-02-08'
p2911
I1
tp2912
a(S'2013-02-15'
p2913
I1
tp2914
a(S'2013-02-22'
p2915
I1
tp2916
a(S'2013-03-01'
p2917
I1
tp2918
a(S'2013-03-08'
p2919
I2
tp2920
a(S'2013-03-15'
p2921
I4
tp2922
a(S'2013-03-22'
p2923
I7
tp2924
a(S'2013-03-29'
p2925
I5
tp2926
a(S'2013-04-05'
p2927
I11
tp2928
a(S'2013-04-12'
p2929
I19
tp2930
asVlove laughter and steamy ever afters 
p2931
(lp2932
(S'2015-06-05'
p2933
I10
tp2934
asVbring up the bodies 
p2935
(lp2936
(S'2012-05-25'
p2937
I11
tp2938
asVthe affair 
p2939
(lp2940
(S'2011-10-14'
p2941
I1
tp2942
a(S'2011-10-21'
p2943
I3
tp2944
a(S'2011-10-28'
p2945
I3
tp2946
a(S'2011-11-04'
p2947
I5
tp2948
a(S'2011-11-11'
p2949
I7
tp2950
a(S'2011-11-18'
p2951
I12
tp2952
a(S'2011-11-25'
p2953
I12
tp2954
asVprivate london 
p2955
(lp2956
(S'2012-12-21'
p2957
I5
tp2958
a(S'2013-01-18'
p2959
I13
tp2960
asVletting go 
p2961
(lp2962
(S'2014-02-21'
p2963
I3
tp2964
asVthe professional part 3 
p2965
(lp2966
(S'2014-02-07'
p2967
I10
tp2968
asVraylan 
p2969
(lp2970
(S'2012-02-03'
p2971
I11
tp2972
asVisland of lost girls 
p2973
(lp2974
(S'2012-02-03'
p2975
I10
tp2976
asVthe martian 
p2977
(lp2978
(S'2015-01-02'
p2979
I12
tp2980
a(S'2015-01-09'
p2981
I10
tp2982
a(S'2015-06-26'
p2983
I2
tp2984
a(S'2015-07-03'
p2985
I7
tp2986
a(S'2015-07-10'
p2987
I6
tp2988
a(S'2015-07-17'
p2989
I6
tp2990
a(S'2015-07-24'
p2991
I8
tp2992
a(S'2015-07-31'
p2993
I7
tp2994
a(S'2015-08-07'
p2995
I7
tp2996
a(S'2015-08-14'
p2997
I8
tp2998
a(S'2015-08-21'
p2999
I5
tp3000
a(S'2015-08-28'
p3001
I8
tp3002
a(S'2015-09-04'
p3003
I3
tp3004
a(S'2015-09-11'
p3005
I3
tp3006
a(S'2015-09-18'
p3007
I2
tp3008
a(S'2015-09-25'
p3009
I3
tp3010
a(S'2015-10-02'
p3011
I1
tp3012
a(S'2015-10-09'
p3013
I1
tp3014
a(S'2015-10-16'
p3015
I1
tp3016
a(S'2015-10-23'
p3017
I2
tp3018
a(S'2015-10-30'
p3019
I2
tp3020
a(S'2015-11-06'
p3021
I4
tp3022
a(S'2015-11-13'
p3023
I4
tp3024
a(S'2015-11-20'
p3025
I5
tp3026
a(S'2015-11-27'
p3027
I5
tp3028
a(S'2015-12-04'
p3029
I8
tp3030
a(S'2015-12-11'
p3031
I6
tp3032
a(S'2015-12-18'
p3033
I8
tp3034
a(S'2015-12-25'
p3035
I4
tp3036
asVaffliction 
p3037
(lp3038
(S'2013-07-19'
p3039
I5
tp3040
asVbefore we kiss 
p3041
(lp3042
(S'2014-06-13'
p3043
I8
tp3044
asVone for the money 
p3045
(lp3046
(S'2012-02-10'
p3047
I5
tp3048
a(S'2012-02-17'
p3049
I13
tp3050
asVthe sense of an ending 
p3051
(lp3052
(S'2011-11-04'
p3053
I14
tp3054
asVpolice 
p3055
(lp3056
(S'2013-11-01'
p3057
I10
tp3058
asVhotel vendome 
p3059
(lp3060
(S'2011-11-18'
p3061
I5
tp3062
a(S'2011-11-25'
p3063
I11
tp3064
asVmr. miracle 
p3065
(lp3066
(S'2014-10-24'
p3067
I8
tp3068
asVthe goldfinch 
p3069
(lp3070
(S'2013-11-08'
p3071
I2
tp3072
a(S'2013-11-15'
p3073
I9
tp3074
a(S'2013-11-22'
p3075
I8
tp3076
a(S'2013-11-29'
p3077
I5
tp3078
a(S'2013-12-06'
p3079
I5
tp3080
a(S'2013-12-13'
p3081
I5
tp3082
a(S'2013-12-20'
p3083
I4
tp3084
a(S'2013-12-27'
p3085
I2
tp3086
a(S'2014-01-03'
p3087
I2
tp3088
a(S'2014-01-10'
p3089
I4
tp3090
a(S'2014-01-17'
p3091
I2
tp3092
a(S'2014-01-24'
p3093
I2
tp3094
a(S'2014-01-31'
p3095
I1
tp3096
a(S'2014-02-07'
p3097
I1
tp3098
a(S'2014-02-14'
p3099
I1
tp3100
a(S'2014-02-21'
p3101
I1
tp3102
a(S'2014-02-28'
p3103
I3
tp3104
a(S'2014-03-07'
p3105
I3
tp3106
a(S'2014-03-14'
p3107
I5
tp3108
a(S'2014-03-21'
p3109
I4
tp3110
a(S'2014-03-28'
p3111
I6
tp3112
a(S'2014-04-04'
p3113
I3
tp3114
a(S'2014-04-11'
p3115
I7
tp3116
a(S'2014-04-18'
p3117
I7
tp3118
a(S'2014-04-25'
p3119
I9
tp3120
a(S'2014-05-02'
p3121
I2
tp3122
a(S'2014-05-09'
p3123
I2
tp3124
a(S'2014-05-16'
p3125
I3
tp3126
a(S'2014-05-23'
p3127
I4
tp3128
a(S'2014-05-30'
p3129
I4
tp3130
a(S'2014-06-06'
p3131
I5
tp3132
a(S'2014-06-13'
p3133
I5
tp3134
a(S'2014-06-20'
p3135
I3
tp3136
a(S'2014-06-27'
p3137
I3
tp3138
a(S'2014-07-04'
p3139
I6
tp3140
a(S'2014-07-11'
p3141
I7
tp3142
a(S'2014-07-18'
p3143
I6
tp3144
a(S'2014-07-25'
p3145
I6
tp3146
a(S'2014-08-01'
p3147
I7
tp3148
a(S'2014-08-08'
p3149
I8
tp3150
a(S'2014-08-15'
p3151
I8
tp3152
a(S'2014-08-22'
p3153
I9
tp3154
a(S'2014-08-29'
p3155
I7
tp3156
a(S'2014-09-05'
p3157
I6
tp3158
a(S'2014-09-12'
p3159
I10
tp3160
asVdark storm 
p3161
(lp3162
(S'2012-10-19'
p3163
I9
tp3164
a(S'2012-10-26'
p3165
I15
tp3166
asVthe darkest surrender 
p3167
(lp3168
(S'2011-10-14'
p3169
I13
tp3170
asVhalfway there 
p3171
(lp3172
(S'2013-05-17'
p3173
I11
tp3174
asVdead reckoning 
p3175
(lp3176
(S'2011-05-20'
p3177
I1
tp3178
a(S'2011-05-27'
p3179
I3
tp3180
a(S'2011-06-03'
p3181
I5
tp3182
a(S'2011-06-10'
p3183
I6
tp3184
a(S'2011-06-17'
p3185
I13
tp3186
a(S'2011-06-24'
p3187
I14
tp3188
asVmagic shifts 
p3189
(lp3190
(S'2015-08-21'
p3191
I7
tp3192
asVup from the grave 
p3193
(lp3194
(S'2014-02-14'
p3195
I4
tp3196
asVtruth or die 
p3197
(lp3198
(S'2015-07-10'
p3199
I3
tp3200
a(S'2015-07-17'
p3201
I10
tp3202
a(S'2015-07-24'
p3203
I13
tp3204
a(S'2015-07-31'
p3205
I14
tp3206
a(S'2015-08-07'
p3207
I15
tp3208
asVa week in winter 
p3209
(lp3210
(S'2013-03-01'
p3211
I2
tp3212
a(S'2013-03-08'
p3213
I5
tp3214
a(S'2013-03-15'
p3215
I7
tp3216
a(S'2013-03-22'
p3217
I10
tp3218
a(S'2013-03-29'
p3219
I7
tp3220
a(S'2013-04-05'
p3221
I7
tp3222
a(S'2013-04-12'
p3223
I17
tp3224
asVthe girl in the spider's web 
p3225
(lp3226
(S'2015-09-18'
p3227
I1
tp3228
a(S'2015-09-25'
p3229
I2
tp3230
a(S'2015-10-02'
p3231
I4
tp3232
a(S'2015-10-09'
p3233
I3
tp3234
a(S'2015-10-16'
p3235
I5
tp3236
a(S'2015-10-23'
p3237
I6
tp3238
a(S'2015-10-30'
p3239
I6
tp3240
a(S'2015-11-06'
p3241
I10
tp3242
a(S'2015-11-13'
p3243
I14
tp3244
asVthe english spy 
p3245
(lp3246
(S'2015-07-17'
p3247
I2
tp3248
a(S'2015-07-24'
p3249
I6
tp3250
a(S'2015-07-31'
p3251
I9
tp3252
a(S'2015-08-07'
p3253
I8
tp3254
a(S'2015-08-14'
p3255
I12
tp3256
asVsharp objects 
p3257
(lp3258
(S'2014-10-24'
p3259
I14
tp3260
a(S'2014-10-31'
p3261
I13
tp3262
a(S'2014-11-07'
p3263
I15
tp3264
asVthe polaris protocol 
p3265
(lp3266
(S'2014-01-31'
p3267
I10
tp3268
asVa lady never surrenders 
p3269
(lp3270
(S'2012-02-10'
p3271
I11
tp3272
asVwhen day breaks 
p3273
(lp3274
(S'2014-07-11'
p3275
I5
tp3276
asVbecause you are mine part vi 
p3277
(lp3278
(S'2012-09-21'
p3279
I15
tp3280
asVscorched 
p3281
(lp3282
(S'2013-11-29'
p3283
I6
tp3284
asVtricky twenty-two 
p3285
(lp3286
(S'2015-12-04'
p3287
I1
tp3288
a(S'2015-12-11'
p3289
I2
tp3290
a(S'2015-12-18'
p3291
I10
tp3292
a(S'2015-12-25'
p3293
I8
tp3294
asVthe pharaoh's secret 
p3295
(lp3296
(S'2015-12-04'
p3297
I6
tp3298
asVsevere clear 
p3299
(lp3300
(S'2012-10-05'
p3301
I8
tp3302
asVa new hope 
p3303
(lp3304
(S'2015-07-17'
p3305
I4
tp3306
a(S'2015-07-24'
p3307
I14
tp3308
asVforged in steele 
p3309
(lp3310
(S'2013-07-12'
p3311
I12
tp3312
asVsarah\u2019s key 
p3313
(lp3314
(S'2011-08-05'
p3315
I15
tp3316
a(S'2011-08-12'
p3317
I10
tp3318
a(S'2011-08-19'
p3319
I11
tp3320
a(S'2011-08-26'
p3321
I9
tp3322
a(S'2011-09-02'
p3323
I4
tp3324
a(S'2011-09-09'
p3325
I9
tp3326
a(S'2011-09-16'
p3327
I9
tp3328
a(S'2011-09-23'
p3329
I11
tp3330
a(S'2011-09-30'
p3331
I13
tp3332
a(S'2011-10-07'
p3333
I13
tp3334
asVsomething blue 
p3335
(lp3336
(S'2011-05-27'
p3337
I10
tp3338
a(S'2011-06-03'
p3339
I10
tp3340
a(S'2011-06-10'
p3341
I11
tp3342
a(S'2011-06-17'
p3343
I15
tp3344
asVcareer of evil 
p3345
(lp3346
(S'2015-11-06'
p3347
I2
tp3348
a(S'2015-11-13'
p3349
I9
tp3350
a(S'2015-11-20'
p3351
I7
tp3352
a(S'2015-11-27'
p3353
I14
tp3354
asVgone girl 
p3355
(lp3356
(S'2012-06-22'
p3357
I4
tp3358
a(S'2012-06-29'
p3359
I4
tp3360
a(S'2012-07-06'
p3361
I5
tp3362
a(S'2012-07-13'
p3363
I4
tp3364
a(S'2012-07-20'
p3365
I4
tp3366
a(S'2012-07-27'
p3367
I5
tp3368
a(S'2012-08-03'
p3369
I5
tp3370
a(S'2012-08-10'
p3371
I4
tp3372
a(S'2012-08-17'
p3373
I4
tp3374
a(S'2012-08-24'
p3375
I4
tp3376
a(S'2012-08-31'
p3377
I4
tp3378
a(S'2012-09-07'
p3379
I4
tp3380
a(S'2012-09-14'
p3381
I4
tp3382
a(S'2012-09-21'
p3383
I5
tp3384
a(S'2012-09-28'
p3385
I6
tp3386
a(S'2012-10-05'
p3387
I5
tp3388
a(S'2012-10-12'
p3389
I5
tp3390
a(S'2012-10-19'
p3391
I7
tp3392
a(S'2012-10-26'
p3393
I7
tp3394
a(S'2012-11-02'
p3395
I9
tp3396
a(S'2012-11-09'
p3397
I7
tp3398
a(S'2012-11-16'
p3399
I4
tp3400
a(S'2012-11-23'
p3401
I6
tp3402
a(S'2012-11-30'
p3403
I5
tp3404
a(S'2012-12-07'
p3405
I8
tp3406
a(S'2012-12-14'
p3407
I7
tp3408
a(S'2012-12-21'
p3409
I2
tp3410
a(S'2012-12-28'
p3411
I1
tp3412
a(S'2013-01-04'
p3413
I1
tp3414
a(S'2013-01-11'
p3415
I2
tp3416
a(S'2013-01-18'
p3417
I3
tp3418
a(S'2013-01-25'
p3419
I3
tp3420
a(S'2013-02-01'
p3421
I3
tp3422
a(S'2013-02-08'
p3423
I3
tp3424
a(S'2013-02-15'
p3425
I3
tp3426
a(S'2013-02-22'
p3427
I4
tp3428
a(S'2013-03-01'
p3429
I4
tp3430
a(S'2013-03-08'
p3431
I3
tp3432
a(S'2013-03-15'
p3433
I5
tp3434
a(S'2013-03-22'
p3435
I9
tp3436
a(S'2013-03-29'
p3437
I4
tp3438
a(S'2013-04-05'
p3439
I6
tp3440
a(S'2013-04-12'
p3441
I10
tp3442
a(S'2013-04-19'
p3443
I9
tp3444
a(S'2013-04-26'
p3445
I11
tp3446
a(S'2013-05-03'
p3447
I8
tp3448
a(S'2013-05-10'
p3449
I11
tp3450
a(S'2013-05-17'
p3451
I14
tp3452
a(S'2013-05-24'
p3453
I10
tp3454
a(S'2013-05-31'
p3455
I9
tp3456
a(S'2013-06-07'
p3457
I11
tp3458
a(S'2013-06-21'
p3459
I13
tp3460
a(S'2013-06-28'
p3461
I15
tp3462
a(S'2013-07-05'
p3463
I15
tp3464
a(S'2013-07-19'
p3465
I11
tp3466
a(S'2013-07-26'
p3467
I11
tp3468
a(S'2013-08-02'
p3469
I10
tp3470
a(S'2013-08-09'
p3471
I8
tp3472
a(S'2013-08-16'
p3473
I10
tp3474
a(S'2013-08-23'
p3475
I11
tp3476
a(S'2013-08-30'
p3477
I14
tp3478
a(S'2013-09-06'
p3479
I13
tp3480
a(S'2013-10-04'
p3481
I15
tp3482
a(S'2013-10-25'
p3483
I9
tp3484
a(S'2013-11-01'
p3485
I13
tp3486
a(S'2013-11-08'
p3487
I15
tp3488
a(S'2014-01-17'
p3489
I10
tp3490
a(S'2014-01-24'
p3491
I9
tp3492
a(S'2014-01-31'
p3493
I7
tp3494
a(S'2014-02-07'
p3495
I7
tp3496
a(S'2014-02-14'
p3497
I15
tp3498
a(S'2014-03-07'
p3499
I15
tp3500
a(S'2014-05-02'
p3501
I10
tp3502
a(S'2014-05-09'
p3503
I5
tp3504
a(S'2014-05-16'
p3505
I4
tp3506
a(S'2014-05-23'
p3507
I6
tp3508
a(S'2014-05-30'
p3509
I5
tp3510
a(S'2014-06-06'
p3511
I7
tp3512
a(S'2014-06-13'
p3513
I10
tp3514
a(S'2014-06-20'
p3515
I6
tp3516
a(S'2014-06-27'
p3517
I4
tp3518
a(S'2014-07-04'
p3519
I7
tp3520
a(S'2014-07-11'
p3521
I10
tp3522
a(S'2014-07-18'
p3523
I8
tp3524
a(S'2014-07-25'
p3525
I3
tp3526
a(S'2014-08-01'
p3527
I4
tp3528
a(S'2014-08-08'
p3529
I4
tp3530
a(S'2014-08-15'
p3531
I5
tp3532
a(S'2014-08-22'
p3533
I3
tp3534
a(S'2014-08-29'
p3535
I6
tp3536
a(S'2014-09-05'
p3537
I4
tp3538
a(S'2014-09-12'
p3539
I4
tp3540
a(S'2014-09-19'
p3541
I4
tp3542
a(S'2014-09-26'
p3543
I3
tp3544
a(S'2014-10-03'
p3545
I2
tp3546
a(S'2014-10-10'
p3547
I1
tp3548
a(S'2014-10-17'
p3549
I1
tp3550
a(S'2014-10-24'
p3551
I1
tp3552
a(S'2014-10-31'
p3553
I1
tp3554
a(S'2014-11-07'
p3555
I2
tp3556
a(S'2014-11-14'
p3557
I3
tp3558
a(S'2014-11-21'
p3559
I3
tp3560
a(S'2014-11-28'
p3561
I5
tp3562
a(S'2014-12-05'
p3563
I3
tp3564
a(S'2014-12-12'
p3565
I3
tp3566
a(S'2014-12-19'
p3567
I6
tp3568
a(S'2014-12-26'
p3569
I3
tp3570
a(S'2015-01-02'
p3571
I2
tp3572
a(S'2015-01-09'
p3573
I1
tp3574
a(S'2015-01-16'
p3575
I2
tp3576
a(S'2015-01-23'
p3577
I2
tp3578
a(S'2015-01-30'
p3579
I3
tp3580
a(S'2015-02-06'
p3581
I3
tp3582
a(S'2015-02-13'
p3583
I6
tp3584
a(S'2015-02-20'
p3585
I7
tp3586
a(S'2015-02-27'
p3587
I10
tp3588
a(S'2015-03-06'
p3589
I6
tp3590
a(S'2015-03-13'
p3591
I13
tp3592
a(S'2015-03-20'
p3593
I11
tp3594
a(S'2015-03-27'
p3595
I15
tp3596
a(S'2015-04-03'
p3597
I13
tp3598
a(S'2015-04-10'
p3599
I10
tp3600
asVi've got you under my skin 
p3601
(lp3602
(S'2014-04-18'
p3603
I2
tp3604
a(S'2014-04-25'
p3605
I5
tp3606
a(S'2014-05-02'
p3607
I6
tp3608
a(S'2014-05-09'
p3609
I10
tp3610
asVlearning 
p3611
(lp3612
(S'2011-07-08'
p3613
I11
tp3614
asVfever 
p3615
(lp3616
(S'2013-04-19'
p3617
I2
tp3618
a(S'2013-04-26'
p3619
I12
tp3620
asVdown the rabbit hole 
p3621
(lp3622
(S'2015-10-16'
p3623
I10
tp3624
asVthe lost night 
p3625
(lp3626
(S'2012-09-21'
p3627
I9
tp3628
asVonce burned 
p3629
(lp3630
(S'2012-07-13'
p3631
I10
tp3632
asVsay you're sorry 
p3633
(lp3634
(S'2013-05-03'
p3635
I12
tp3636
asVeighth grave after dark 
p3637
(lp3638
(S'2015-06-05'
p3639
I14
tp3640
asVseducing cinderella 
p3641
(lp3642
(S'2012-08-31'
p3643
I14
tp3644
a(S'2012-09-07'
p3645
I13
tp3646
asVcrashed 
p3647
(lp3648
(S'2014-03-21'
p3649
I2
tp3650
asVforever too far 
p3651
(lp3652
(S'2013-06-28'
p3653
I4
tp3654
a(S'2013-07-05'
p3655
I10
tp3656
asValpha billionaire 3 
p3657
(lp3658
(S'2014-11-21'
p3659
I6
tp3660
asVthe tiger\u2019s wife 
p3661
(lp3662
(S'2011-04-01'
p3663
I15
tp3664
asVdogwood hill 
p3665
(lp3666
(S'2015-01-16'
p3667
I14
tp3668
asVthe long way home 
p3669
(lp3670
(S'2014-09-12'
p3671
I1
tp3672
asVtaking it all 
p3673
(lp3674
(S'2014-08-22'
p3675
I4
tp3676
asVno limits 
p3677
(lp3678
(S'2014-09-12'
p3679
I15
tp3680
asVluckiest girl alive 
p3681
(lp3682
(S'2015-05-29'
p3683
I8
tp3684
a(S'2015-06-05'
p3685
I8
tp3686
a(S'2015-06-12'
p3687
I7
tp3688
a(S'2015-06-19'
p3689
I8
tp3690
a(S'2015-06-26'
p3691
I9
tp3692
a(S'2015-07-03'
p3693
I13
tp3694
a(S'2015-07-10'
p3695
I15
tp3696
a(S'2015-07-17'
p3697
I13
tp3698
a(S'2015-07-24'
p3699
I11
tp3700
a(S'2015-07-31'
p3701
I13
tp3702
a(S'2015-08-07'
p3703
I12
tp3704
a(S'2015-08-14'
p3705
I15
tp3706
a(S'2015-08-21'
p3707
I10
tp3708
a(S'2015-08-28'
p3709
I15
tp3710
asVthe panther 
p3711
(lp3712
(S'2012-11-02'
p3713
I2
tp3714
a(S'2012-11-09'
p3715
I9
tp3716
a(S'2012-11-16'
p3717
I10
tp3718
a(S'2012-11-23'
p3719
I13
tp3720
asVmonster ________ 
p3721
(lp3722
(S'2015-12-04'
p3723
I7
tp3724
asVblackberry pie murder 
p3725
(lp3726
(S'2014-03-14'
p3727
I15
tp3728
asValways on my mind 
p3729
(lp3730
(S'2013-10-11'
p3731
I15
tp3732
asVhavana storm 
p3733
(lp3734
(S'2014-11-14'
p3735
I5
tp3736
a(S'2014-11-21'
p3737
I11
tp3738
asVraging heat 
p3739
(lp3740
(S'2015-10-09'
p3741
I14
tp3742
asVthe best of me 
p3743
(lp3744
(S'2011-10-28'
p3745
I1
tp3746
a(S'2011-11-04'
p3747
I1
tp3748
a(S'2011-11-11'
p3749
I2
tp3750
a(S'2011-11-18'
p3751
I4
tp3752
a(S'2011-11-25'
p3753
I5
tp3754
a(S'2011-12-02'
p3755
I7
tp3756
a(S'2011-12-09'
p3757
I9
tp3758
a(S'2011-12-16'
p3759
I10
tp3760
a(S'2011-12-23'
p3761
I10
tp3762
a(S'2011-12-30'
p3763
I11
tp3764
a(S'2012-01-06'
p3765
I8
tp3766
a(S'2012-01-13'
p3767
I7
tp3768
a(S'2012-01-20'
p3769
I11
tp3770
a(S'2012-08-31'
p3771
I12
tp3772
a(S'2014-09-19'
p3773
I14
tp3774
a(S'2014-10-03'
p3775
I10
tp3776
a(S'2014-10-10'
p3777
I4
tp3778
a(S'2014-10-17'
p3779
I4
tp3780
a(S'2014-10-24'
p3781
I3
tp3782
a(S'2014-10-31'
p3783
I3
tp3784
a(S'2014-11-07'
p3785
I4
tp3786
a(S'2014-11-14'
p3787
I12
tp3788
asVlove you more 
p3789
(lp3790
(S'2011-03-25'
p3791
I4
tp3792
a(S'2011-04-01'
p3793
I5
tp3794
a(S'2011-04-08'
p3795
I11
tp3796
a(S'2011-04-15'
p3797
I10
tp3798
a(S'2011-04-22'
p3799
I15
tp3800
asVshadow woman 
p3801
(lp3802
(S'2013-01-18'
p3803
I12
tp3804
asVprince lestat 
p3805
(lp3806
(S'2014-11-14'
p3807
I6
tp3808
a(S'2014-11-21'
p3809
I9
tp3810
a(S'2014-11-28'
p3811
I13
tp3812
asVlead 
p3813
(lp3814
(S'2014-08-15'
p3815
I6
tp3816
asVa match for marcus cynster 
p3817
(lp3818
(S'2015-06-12'
p3819
I9
tp3820
asVpretty girls 
p3821
(lp3822
(S'2015-10-16'
p3823
I7
tp3824
a(S'2015-10-23'
p3825
I13
tp3826
a(S'2015-10-30'
p3827
I8
tp3828
a(S'2015-11-06'
p3829
I12
tp3830
asVnypd red 
p3831
(lp3832
(S'2012-10-26'
p3833
I8
tp3834
a(S'2012-11-02'
p3835
I10
tp3836
a(S'2012-11-09'
p3837
I4
tp3838
a(S'2012-11-16'
p3839
I9
tp3840
a(S'2012-11-23'
p3841
I15
tp3842
asVthe girl with the dragon tattoo 
p3843
(lp3844
(S'2011-02-18'
p3845
I2
tp3846
a(S'2011-02-25'
p3847
I3
tp3848
a(S'2011-03-04'
p3849
I3
tp3850
a(S'2011-03-11'
p3851
I5
tp3852
a(S'2011-03-18'
p3853
I7
tp3854
a(S'2011-03-25'
p3855
I6
tp3856
a(S'2011-04-01'
p3857
I8
tp3858
a(S'2011-04-08'
p3859
I10
tp3860
a(S'2011-04-15'
p3861
I14
tp3862
a(S'2011-07-01'
p3863
I12
tp3864
a(S'2011-07-08'
p3865
I15
tp3866
a(S'2011-11-25'
p3867
I10
tp3868
a(S'2011-12-02'
p3869
I10
tp3870
a(S'2011-12-09'
p3871
I11
tp3872
a(S'2011-12-16'
p3873
I7
tp3874
a(S'2011-12-23'
p3875
I9
tp3876
a(S'2011-12-30'
p3877
I5
tp3878
a(S'2012-01-06'
p3879
I1
tp3880
a(S'2012-01-13'
p3881
I2
tp3882
a(S'2012-01-20'
p3883
I2
tp3884
a(S'2012-01-27'
p3885
I1
tp3886
a(S'2012-02-03'
p3887
I2
tp3888
a(S'2012-02-10'
p3889
I4
tp3890
a(S'2012-02-17'
p3891
I8
tp3892
a(S'2012-02-24'
p3893
I9
tp3894
a(S'2012-03-02'
p3895
I13
tp3896
a(S'2012-03-09'
p3897
I12
tp3898
a(S'2012-04-06'
p3899
I9
tp3900
a(S'2012-04-13'
p3901
I13
tp3902
a(S'2013-01-11'
p3903
I14
tp3904
asVtoys 
p3905
(lp3906
(S'2011-04-01'
p3907
I2
tp3908
a(S'2011-04-08'
p3909
I5
tp3910
a(S'2011-04-15'
p3911
I7
tp3912
a(S'2011-04-22'
p3913
I14
tp3914
asVbleeding edge 
p3915
(lp3916
(S'2013-10-04'
p3917
I13
tp3918
asVasa 
p3919
(lp3920
(S'2015-05-08'
p3921
I13
tp3922
asVguilty wives 
p3923
(lp3924
(S'2012-04-13'
p3925
I3
tp3926
a(S'2012-04-20'
p3927
I6
tp3928
a(S'2012-04-27'
p3929
I6
tp3930
a(S'2012-05-04'
p3931
I9
tp3932
a(S'2012-05-11'
p3933
I13
tp3934
a(S'2012-05-18'
p3935
I14
tp3936
asVbadlands 
p3937
(lp3938
(S'2015-08-14'
p3939
I11
tp3940
asVblue labyrinth 
p3941
(lp3942
(S'2014-11-28'
p3943
I6
tp3944
a(S'2014-12-05'
p3945
I14
tp3946
asVashley bell 
p3947
(lp3948
(S'2015-12-25'
p3949
I5
tp3950
asVtreachery in death 
p3951
(lp3952
(S'2011-03-11'
p3953
I1
tp3954
a(S'2011-03-18'
p3955
I8
tp3956
a(S'2011-03-25'
p3957
I15
tp3958
asVbeautiful secret 
p3959
(lp3960
(S'2015-05-01'
p3961
I7
tp3962
asVa dance with dragons 
p3963
(lp3964
(S'2011-07-29'
p3965
I1
tp3966
a(S'2011-08-05'
p3967
I3
tp3968
a(S'2011-08-12'
p3969
I6
tp3970
a(S'2011-08-19'
p3971
I8
tp3972
a(S'2011-08-26'
p3973
I7
tp3974
a(S'2011-09-02'
p3975
I6
tp3976
a(S'2011-09-09'
p3977
I13
tp3978
a(S'2011-09-16'
p3979
I14
tp3980
a(S'2011-09-23'
p3981
I14
tp3982
a(S'2013-11-15'
p3983
I4
tp3984
a(S'2013-11-22'
p3985
I15
tp3986
a(S'2013-11-29'
p3987
I13
tp3988
asVwild wolf 
p3989
(lp3990
(S'2014-04-18'
p3991
I14
tp3992
asVjust to be with you 
p3993
(lp3994
(S'2014-03-21'
p3995
I13
tp3996
asVa will and a way 
p3997
(lp3998
(S'2014-11-28'
p3999
I7
tp4000
asVthe invention of wings 
p4001
(lp4002
(S'2014-01-24'
p4003
I1
tp4004
a(S'2014-01-31'
p4005
I3
tp4006
a(S'2014-02-07'
p4007
I2
tp4008
a(S'2014-02-14'
p4009
I2
tp4010
a(S'2014-02-21'
p4011
I2
tp4012
a(S'2014-02-28'
p4013
I4
tp4014
a(S'2014-03-07'
p4015
I5
tp4016
a(S'2014-03-14'
p4017
I11
tp4018
a(S'2014-03-21'
p4019
I6
tp4020
a(S'2014-03-28'
p4021
I7
tp4022
a(S'2014-04-04'
p4023
I7
tp4024
a(S'2014-04-11'
p4025
I13
tp4026
a(S'2014-04-18'
p4027
I11
tp4028
a(S'2014-04-25'
p4029
I13
tp4030
a(S'2014-05-02'
p4031
I13
tp4032
asVbeautiful bitch 
p4033
(lp4034
(S'2013-07-26'
p4035
I8
tp4036
asVthe jefferson key 
p4037
(lp4038
(S'2011-06-03'
p4039
I7
tp4040
a(S'2011-06-10'
p4041
I10
tp4042
asVreasonable doubt: book 2 
p4043
(lp4044
(S'2014-06-06'
p4045
I15
tp4046
asVeyes wide open 
p4047
(lp4048
(S'2013-05-31'
p4049
I3
tp4050
asVthe jungle 
p4051
(lp4052
(S'2011-03-25'
p4053
I2
tp4054
a(S'2011-04-01'
p4055
I7
tp4056
a(S'2011-04-08'
p4057
I14
tp4058
asVthe wind through the keyhole 
p4059
(lp4060
(S'2012-05-11'
p4061
I4
tp4062
a(S'2012-05-18'
p4063
I13
tp4064
asVreflected in you 
p4065
(lp4066
(S'2012-10-19'
p4067
I1
tp4068
a(S'2012-10-26'
p4069
I1
tp4070
a(S'2012-11-02'
p4071
I7
tp4072
a(S'2012-11-09'
p4073
I2
tp4074
a(S'2012-11-16'
p4075
I2
tp4076
a(S'2012-11-23'
p4077
I5
tp4078
a(S'2012-11-30'
p4079
I12
tp4080
a(S'2012-12-07'
p4081
I13
tp4082
asVfallen 
p4083
(lp4084
(S'2011-07-08'
p4085
I13
tp4086
asVremy 
p4087
(lp4088
(S'2013-12-13'
p4089
I8
tp4090
asVand the mountains echoed 
p4091
(lp4092
(S'2013-06-07'
p4093
I2
tp4094
a(S'2013-06-14'
p4095
I2
tp4096
a(S'2013-06-21'
p4097
I3
tp4098
a(S'2013-06-28'
p4099
I3
tp4100
a(S'2013-07-05'
p4101
I3
tp4102
a(S'2013-07-12'
p4103
I5
tp4104
a(S'2013-07-19'
p4105
I4
tp4106
a(S'2013-07-26'
p4107
I5
tp4108
a(S'2013-08-02'
p4109
I8
tp4110
a(S'2013-08-09'
p4111
I4
tp4112
a(S'2013-08-16'
p4113
I8
tp4114
a(S'2013-08-23'
p4115
I9
tp4116
a(S'2013-08-30'
p4117
I11
tp4118
a(S'2013-09-06'
p4119
I12
tp4120
a(S'2013-12-27'
p4121
I13
tp4122
a(S'2014-01-03'
p4123
I13
tp4124
asVwild cat 
p4125
(lp4126
(S'2015-12-11'
p4127
I9
tp4128
asVdown london road 
p4129
(lp4130
(S'2013-05-24'
p4131
I14
tp4132
asVthe supreme macaroni company 
p4133
(lp4134
(S'2013-12-13'
p4135
I15
tp4136
asVthe aeronaut's windlass 
p4137
(lp4138
(S'2015-10-16'
p4139
I6
tp4140
asVmirror image 
p4141
(lp4142
(S'2013-03-15'
p4143
I12
tp4144
a(S'2013-03-22'
p4145
I5
tp4146
a(S'2013-03-29'
p4147
I8
tp4148
asVstandup guy 
p4149
(lp4150
(S'2014-01-24'
p4151
I6
tp4152
a(S'2014-01-31'
p4153
I13
tp4154
asVthe lost island 
p4155
(lp4156
(S'2014-08-22'
p4157
I8
tp4158
asVlow pressure 
p4159
(lp4160
(S'2012-10-05'
p4161
I7
tp4162
a(S'2012-10-12'
p4163
I12
tp4164
asVnovember 9 
p4165
(lp4166
(S'2015-11-27'
p4167
I10
tp4168
asVthe twelve 
p4169
(lp4170
(S'2012-11-02'
p4171
I3
tp4172
asVdaddy's gone a hunting 
p4173
(lp4174
(S'2013-04-26'
p4175
I2
tp4176
a(S'2013-05-03'
p4177
I9
tp4178
a(S'2013-05-10'
p4179
I13
tp4180
asVrescue me 
p4181
(lp4182
(S'2012-06-15'
p4183
I10
tp4184
asVchill factor 
p4185
(lp4186
(S'2014-07-25'
p4187
I15
tp4188
asVa different blue 
p4189
(lp4190
(S'2013-06-14'
p4191
I13
tp4192
asVtempting fate 
p4193
(lp4194
(S'2014-04-11'
p4195
I15
tp4196
asVa leaf on the wind of all hallows 
p4197
(lp4198
(S'2012-12-21'
p4199
I15
tp4200
asVthe capture of the earl of glencrae 
p4201
(lp4202
(S'2012-02-17'
p4203
I2
tp4204
asVunlocked 
p4205
(lp4206
(S'2013-09-06'
p4207
I10
tp4208
asVunintended consequences 
p4209
(lp4210
(S'2013-04-26'
p4211
I3
tp4212
a(S'2013-05-03'
p4213
I19
tp4214
asVrusty nailed 
p4215
(lp4216
(S'2014-07-11'
p4217
I13
tp4218
asVa clash of kings 
p4219
(lp4220
(S'2011-05-27'
p4221
I15
tp4222
a(S'2011-07-01'
p4223
I13
tp4224
a(S'2011-07-08'
p4225
I8
tp4226
a(S'2011-07-15'
p4227
I10
tp4228
a(S'2011-07-22'
p4229
I10
tp4230
a(S'2011-07-29'
p4231
I10
tp4232
a(S'2011-08-05'
p4233
I13
tp4234
a(S'2011-08-12'
p4235
I13
tp4236
a(S'2011-09-02'
p4237
I15
tp4238
asVthe quest 
p4239
(lp4240
(S'2013-10-04'
p4241
I4
tp4242
a(S'2013-10-11'
p4243
I13
tp4244
asVchestnut street 
p4245
(lp4246
(S'2014-05-09'
p4247
I4
tp4248
asVaddicted 
p4249
(lp4250
(S'2014-08-01'
p4251
I13
tp4252
a(S'2014-10-24'
p4253
I13
tp4254
asVand i love her 
p4255
(lp4256
(S'2015-03-20'
p4257
I12
tp4258
asVdeeply odd 
p4259
(lp4260
(S'2013-06-14'
p4261
I4
tp4262
asVimmortal 
p4263
(lp4264
(S'2014-10-24'
p4265
I15
tp4266
asVthe cairo affair 
p4267
(lp4268
(S'2014-04-04'
p4269
I13
tp4270
asVthe training 
p4271
(lp4272
(S'2013-10-18'
p4273
I11
tp4274
asVwalking disaster 
p4275
(lp4276
(S'2013-04-19'
p4277
I1
tp4278
a(S'2013-04-26'
p4279
I15
tp4280
asVsweet talk 
p4281
(lp4282
(S'2012-08-24'
p4283
I6
tp4284
asVdefending jacob 
p4285
(lp4286
(S'2012-02-17'
p4287
I7
tp4288
a(S'2012-02-24'
p4289
I3
tp4290
a(S'2012-03-02'
p4291
I4
tp4292
a(S'2012-03-09'
p4293
I5
tp4294
a(S'2012-03-16'
p4295
I8
tp4296
a(S'2012-03-23'
p4297
I9
tp4298
a(S'2012-03-30'
p4299
I6
tp4300
a(S'2012-04-06'
p4301
I7
tp4302
a(S'2012-04-13'
p4303
I11
tp4304
a(S'2012-04-20'
p4305
I14
tp4306
a(S'2012-04-27'
p4307
I14
tp4308
a(S'2013-03-29'
p4309
I17
tp4310
a(S'2013-04-05'
p4311
I20
tp4312
asVsafe at last 
p4313
(lp4314
(S'2015-07-10'
p4315
I12
tp4316
asVbeautiful beginning 
p4317
(lp4318
(S'2013-12-06'
p4319
I9
tp4320
asVlast to die 
p4321
(lp4322
(S'2012-09-14'
p4323
I5
tp4324
a(S'2012-09-21'
p4325
I11
tp4326
asVrobert b. parker's the devil wins 
p4327
(lp4328
(S'2015-09-25'
p4329
I15
tp4330
asVcalico joe 
p4331
(lp4332
(S'2012-04-27'
p4333
I3
tp4334
a(S'2012-05-04'
p4335
I7
tp4336
a(S'2012-05-11'
p4337
I10
tp4338
a(S'2012-05-18'
p4339
I10
tp4340
a(S'2012-06-29'
p4341
I11
tp4342
asVthe final cut 
p4343
(lp4344
(S'2013-10-04'
p4345
I3
tp4346
asVsmokin\u2019 seventeen 
p4347
(lp4348
(S'2011-07-08'
p4349
I1
tp4350
a(S'2011-07-15'
p4351
I3
tp4352
a(S'2011-07-22'
p4353
I3
tp4354
a(S'2011-07-29'
p4355
I8
tp4356
a(S'2011-08-05'
p4357
I11
tp4358
a(S'2011-12-02'
p4359
I13
tp4360
a(S'2011-12-09'
p4361
I13
tp4362
a(S'2011-12-16'
p4363
I15
tp4364
asVrush 
p4365
(lp4366
(S'2013-02-22'
p4367
I3
tp4368
a(S'2013-03-01'
p4369
I7
tp4370
a(S'2013-03-08'
p4371
I8
tp4372
a(S'2013-03-15'
p4373
I14
tp4374
asVfirst love 
p4375
(lp4376
(S'2014-01-31'
p4377
I5
tp4378
a(S'2014-02-07'
p4379
I6
tp4380
a(S'2014-02-14'
p4381
I12
tp4382
a(S'2014-02-21'
p4383
I13
tp4384
asVthe silent girl 
p4385
(lp4386
(S'2011-07-22'
p4387
I4
tp4388
a(S'2011-07-29'
p4389
I15
tp4390
asVwe are water 
p4391
(lp4392
(S'2013-11-08'
p4393
I4
tp4394
asVrobert b. parker\u2019s damned if you do 
p4395
(lp4396
(S'2013-09-27'
p4397
I8
tp4398
asVunlucky 13 
p4399
(lp4400
(S'2014-05-23'
p4401
I1
tp4402
a(S'2014-05-30'
p4403
I1
tp4404
a(S'2014-06-06'
p4405
I2
tp4406
a(S'2014-06-13'
p4407
I2
tp4408
a(S'2014-06-20'
p4409
I5
tp4410
a(S'2014-06-27'
p4411
I6
tp4412
a(S'2014-07-04'
p4413
I11
tp4414
asVfinal vow 
p4415
(lp4416
(S'2014-02-07'
p4417
I8
tp4418
asVbones never lie 
p4419
(lp4420
(S'2014-10-10'
p4421
I6
tp4422
asVsavor the danger 
p4423
(lp4424
(S'2011-07-15'
p4425
I13
tp4426
asVforce of nature 
p4427
(lp4428
(S'2012-04-06'
p4429
I13
tp4430
asVexposed 
p4431
(lp4432
(S'2013-04-05'
p4433
I4
tp4434
asVhold me 
p4435
(lp4436
(S'2015-05-15'
p4437
I6
tp4438
asVrevival 
p4439
(lp4440
(S'2014-11-28'
p4441
I1
tp4442
a(S'2014-12-05'
p4443
I7
tp4444
a(S'2014-12-12'
p4445
I7
tp4446
a(S'2014-12-19'
p4447
I8
tp4448
a(S'2014-12-26'
p4449
I8
tp4450
a(S'2015-01-02'
p4451
I6
tp4452
a(S'2015-01-09'
p4453
I7
tp4454
asVsiren's call 
p4455
(lp4456
(S'2015-08-14'
p4457
I5
tp4458
asVonly yours 
p4459
(lp4460
(S'2011-09-16'
p4461
I12
tp4462
asVtangled 
p4463
(lp4464
(S'2013-06-07'
p4465
I15
tp4466
asVobsession in death 
p4467
(lp4468
(S'2015-02-27'
p4469
I3
tp4470
a(S'2015-03-06'
p4471
I10
tp4472
asVthe way to a man's heart 
p4473
(lp4474
(S'2015-10-09'
p4475
I11
tp4476
asVfatal frenzy 
p4477
(lp4478
(S'2015-10-02'
p4479
I14
tp4480
asVdark places 
p4481
(lp4482
(S'2014-10-17'
p4483
I14
tp4484
a(S'2014-10-24'
p4485
I11
tp4486
a(S'2014-10-31'
p4487
I7
tp4488
a(S'2014-11-07'
p4489
I10
tp4490
a(S'2014-11-21'
p4491
I14
tp4492
a(S'2014-12-12'
p4493
I12
tp4494
a(S'2015-01-02'
p4495
I14
tp4496
a(S'2015-01-09'
p4497
I11
tp4498
a(S'2015-01-16'
p4499
I11
tp4500
a(S'2015-01-23'
p4501
I15
tp4502
a(S'2015-01-30'
p4503
I13
tp4504
a(S'2015-02-06'
p4505
I8
tp4506
a(S'2015-07-17'
p4507
I14
tp4508
a(S'2015-07-31'
p4509
I15
tp4510
a(S'2015-08-07'
p4511
I13
tp4512
a(S'2015-08-21'
p4513
I14
tp4514
asVflowers in the attic 
p4515
(lp4516
(S'2014-02-07'
p4517
I13
tp4518
asVx 
p4519
(lp4520
(S'2015-09-11'
p4521
I1
tp4522
a(S'2015-09-18'
p4523
I8
tp4524
a(S'2015-09-25'
p4525
I6
tp4526
a(S'2015-10-02'
p4527
I13
tp4528
a(S'2015-10-09'
p4529
I12
tp4530
asVrose harbor in bloom 
p4531
(lp4532
(S'2013-08-30'
p4533
I2
tp4534
asVnypd red 3 
p4535
(lp4536
(S'2015-04-03'
p4537
I2
tp4538
a(S'2015-04-10'
p4539
I4
tp4540
a(S'2015-04-17'
p4541
I8
tp4542
a(S'2015-04-24'
p4543
I7
tp4544
a(S'2015-05-01'
p4545
I11
tp4546
asVthe nightingale 
p4547
(lp4548
(S'2015-02-20'
p4549
I3
tp4550
a(S'2015-02-27'
p4551
I11
tp4552
a(S'2015-03-06'
p4553
I7
tp4554
a(S'2015-03-13'
p4555
I11
tp4556
a(S'2015-03-20'
p4557
I6
tp4558
a(S'2015-03-27'
p4559
I6
tp4560
a(S'2015-04-03'
p4561
I6
tp4562
a(S'2015-04-10'
p4563
I6
tp4564
a(S'2015-04-17'
p4565
I10
tp4566
a(S'2015-04-24'
p4567
I6
tp4568
a(S'2015-05-01'
p4569
I8
tp4570
a(S'2015-05-08'
p4571
I10
tp4572
a(S'2015-05-15'
p4573
I8
tp4574
a(S'2015-05-22'
p4575
I8
tp4576
a(S'2015-05-29'
p4577
I9
tp4578
a(S'2015-06-05'
p4579
I9
tp4580
a(S'2015-06-12'
p4581
I8
tp4582
a(S'2015-06-19'
p4583
I9
tp4584
a(S'2015-06-26'
p4585
I11
tp4586
a(S'2015-07-03'
p4587
I12
tp4588
a(S'2015-07-10'
p4589
I11
tp4590
a(S'2015-07-17'
p4591
I12
tp4592
a(S'2015-07-24'
p4593
I12
tp4594
a(S'2015-07-31'
p4595
I11
tp4596
a(S'2015-08-07'
p4597
I10
tp4598
a(S'2015-08-14'
p4599
I9
tp4600
a(S'2015-08-21'
p4601
I9
tp4602
a(S'2015-08-28'
p4603
I11
tp4604
a(S'2015-09-04'
p4605
I13
tp4606
a(S'2015-09-11'
p4607
I14
tp4608
a(S'2015-10-09'
p4609
I13
tp4610
a(S'2015-12-18'
p4611
I1
tp4612
a(S'2015-12-25'
p4613
I12
tp4614
asVthe storyteller 
p4615
(lp4616
(S'2013-03-15'
p4617
I2
tp4618
a(S'2013-03-22'
p4619
I6
tp4620
a(S'2013-03-29'
p4621
I3
tp4622
a(S'2013-04-05'
p4623
I3
tp4624
a(S'2013-04-12'
p4625
I8
tp4626
a(S'2013-04-19'
p4627
I7
tp4628
a(S'2013-04-26'
p4629
I10
tp4630
a(S'2013-05-03'
p4631
I16
tp4632
a(S'2013-05-10'
p4633
I18
tp4634
asVstars of fortune 
p4635
(lp4636
(S'2015-11-20'
p4637
I2
tp4638
a(S'2015-11-27'
p4639
I8
tp4640
a(S'2015-12-04'
p4641
I12
tp4642
a(S'2015-12-11'
p4643
I11
tp4644
asVon the island 
p4645
(lp4646
(S'2012-04-27'
p4647
I7
tp4648
a(S'2012-05-04'
p4649
I11
tp4650
a(S'2012-05-11'
p4651
I11
tp4652
a(S'2012-05-18'
p4653
I11
tp4654
a(S'2012-05-25'
p4655
I13
tp4656
a(S'2012-06-01'
p4657
I11
tp4658
a(S'2012-06-08'
p4659
I7
tp4660
a(S'2012-06-15'
p4661
I7
tp4662
a(S'2012-06-22'
p4663
I12
tp4664
asVfifteen minutes 
p4665
(lp4666
(S'2013-11-15'
p4667
I15
tp4668
asVbig sky wedding 
p4669
(lp4670
(S'2013-09-13'
p4671
I7
tp4672
asVloving 
p4673
(lp4674
(S'2012-04-13'
p4675
I7
tp4676
asVw is for wasted 
p4677
(lp4678
(S'2013-09-27'
p4679
I1
tp4680
a(S'2013-10-04'
p4681
I7
tp4682
a(S'2013-10-11'
p4683
I10
tp4684
a(S'2013-10-18'
p4685
I9
tp4686
asVthe whole enchilada 
p4687
(lp4688
(S'2013-09-13'
p4689
I9
tp4690
a(S'2014-03-21'
p4691
I15
tp4692
asVthe limpopo academy of private detection 
p4693
(lp4694
(S'2012-04-20'
p4695
I9
tp4696
asVlone wolf 
p4697
(lp4698
(S'2012-03-16'
p4699
I2
tp4700
a(S'2012-03-23'
p4701
I8
tp4702
a(S'2012-03-30'
p4703
I7
tp4704
a(S'2012-04-06'
p4705
I8
tp4706
asVpegasus 
p4707
(lp4708
(S'2014-11-14'
p4709
I8
tp4710
asVonly enchanting 
p4711
(lp4712
(S'2014-11-14'
p4713
I13
tp4714
asVi\u2019ll walk alone 
p4715
(lp4716
(S'2011-04-22'
p4717
I4
tp4718
a(S'2011-04-29'
p4719
I7
tp4720
a(S'2011-05-06'
p4721
I12
tp4722
a(S'2011-05-13'
p4723
I15
tp4724
a(S'2011-05-20'
p4725
I12
tp4726
asVkeep quiet 
p4727
(lp4728
(S'2014-04-25'
p4729
I7
tp4730
asVcollateral damage 
p4731
(lp4732
(S'2013-01-25'
p4733
I6
tp4734
asVstyxx 
p4735
(lp4736
(S'2013-09-20'
p4737
I3
tp4738
asVthe coincidence of callie and kayden 
p4739
(lp4740
(S'2013-01-04'
p4741
I14
tp4742
a(S'2013-01-11'
p4743
I3
tp4744
a(S'2013-01-18'
p4745
I4
tp4746
a(S'2013-01-25'
p4747
I7
tp4748
a(S'2013-02-01'
p4749
I11
tp4750
a(S'2013-02-08'
p4751
I13
tp4752
asV14th deadly sin 
p4753
(lp4754
(S'2015-05-22'
p4755
I1
tp4756
a(S'2015-05-29'
p4757
I2
tp4758
a(S'2015-06-05'
p4759
I2
tp4760
a(S'2015-06-12'
p4761
I6
tp4762
a(S'2015-06-19'
p4763
I7
tp4764
a(S'2015-06-26'
p4765
I14
tp4766
asVcold vengeance 
p4767
(lp4768
(S'2011-08-19'
p4769
I2
tp4770
a(S'2011-08-26'
p4771
I15
tp4772
asVthe bone bed 
p4773
(lp4774
(S'2012-11-02'
p4775
I1
tp4776
a(S'2012-11-09'
p4777
I10
tp4778
a(S'2012-11-16'
p4779
I11
tp4780
asVsummer rental 
p4781
(lp4782
(S'2011-06-24'
p4783
I13
tp4784
asVarcher's voice 
p4785
(lp4786
(S'2014-05-23'
p4787
I10
tp4788
asVreal 
p4789
(lp4790
(S'2013-05-03'
p4791
I5
tp4792
a(S'2013-05-10'
p4793
I10
tp4794
a(S'2013-05-17'
p4795
I13
tp4796
asVsilken prey 
p4797
(lp4798
(S'2013-05-24'
p4799
I2
tp4800
a(S'2013-05-31'
p4801
I6
tp4802
a(S'2013-06-07'
p4803
I6
tp4804
a(S'2013-06-14'
p4805
I9
tp4806
a(S'2013-06-21'
p4807
I11
tp4808
asVdeath of kings 
p4809
(lp4810
(S'2012-02-03'
p4811
I12
tp4812
asVslammed 
p4813
(lp4814
(S'2012-07-27'
p4815
I15
tp4816
a(S'2012-08-03'
p4817
I11
tp4818
a(S'2012-08-10'
p4819
I13
tp4820
a(S'2012-08-17'
p4821
I11
tp4822
a(S'2012-08-24'
p4823
I10
tp4824
asVthis is where i leave you 
p4825
(lp4826
(S'2012-08-31'
p4827
I10
tp4828
a(S'2014-10-03'
p4829
I13
tp4830
asVsummer secrets 
p4831
(lp4832
(S'2011-06-17'
p4833
I4
tp4834
a(S'2011-06-24'
p4835
I10
tp4836
asVa beautiful wedding 
p4837
(lp4838
(S'2013-12-27'
p4839
I11
tp4840
asVbring me home for christmas 
p4841
(lp4842
(S'2011-11-11'
p4843
I6
tp4844
asVdashing through the snow 
p4845
(lp4846
(S'2015-10-23'
p4847
I8
tp4848
asVdragonbane 
p4849
(lp4850
(S'2015-08-21'
p4851
I8
tp4852
asVtake a chance 
p4853
(lp4854
(S'2014-03-14'
p4855
I7
tp4856
asVthe darkest seduction 
p4857
(lp4858
(S'2012-03-16'
p4859
I7
tp4860
asVkiller 
p4861
(lp4862
(S'2014-02-28'
p4863
I2
tp4864
a(S'2014-03-07'
p4865
I7
tp4866
a(S'2014-03-14'
p4867
I13
tp4868
a(S'2014-03-21'
p4869
I14
tp4870
asVthe girl who played with fire 
p4871
(lp4872
(S'2011-02-18'
p4873
I3
tp4874
a(S'2011-02-25'
p4875
I6
tp4876
a(S'2011-03-04'
p4877
I5
tp4878
a(S'2011-03-11'
p4879
I7
tp4880
a(S'2011-03-18'
p4881
I10
tp4882
a(S'2011-03-25'
p4883
I7
tp4884
a(S'2011-04-01'
p4885
I9
tp4886
a(S'2011-04-08'
p4887
I12
tp4888
a(S'2011-12-30'
p4889
I13
tp4890
a(S'2012-01-06'
p4891
I10
tp4892
a(S'2012-01-13'
p4893
I6
tp4894
a(S'2012-01-20'
p4895
I4
tp4896
a(S'2012-01-27'
p4897
I4
tp4898
a(S'2012-02-03'
p4899
I4
tp4900
a(S'2012-02-10'
p4901
I7
tp4902
a(S'2012-02-17'
p4903
I9
tp4904
a(S'2012-02-24'
p4905
I8
tp4906
a(S'2012-03-02'
p4907
I11
tp4908
a(S'2012-03-09'
p4909
I10
tp4910
a(S'2012-04-06'
p4911
I11
tp4912
a(S'2012-04-13'
p4913
I14
tp4914
asVsecret sisters 
p4915
(lp4916
(S'2015-12-25'
p4917
I13
tp4918
asVice cold 
p4919
(lp4920
(S'2014-11-28'
p4921
I11
tp4922
asVtwo graves 
p4923
(lp4924
(S'2012-12-28'
p4925
I3
tp4926
asVrevenge wears prada 
p4927
(lp4928
(S'2013-06-21'
p4929
I5
tp4930
a(S'2013-06-28'
p4931
I14
tp4932
asVthe girls of august 
p4933
(lp4934
(S'2014-07-25'
p4935
I9
tp4936
asVthe magic strings of frankie presto 
p4937
(lp4938
(S'2015-11-27'
p4939
I9
tp4940
a(S'2015-12-11'
p4941
I14
tp4942
a(S'2015-12-25'
p4943
I14
tp4944
asVthe temptation of lila and ethan 
p4945
(lp4946
(S'2013-11-08'
p4947
I7
tp4948
asVthe hit 
p4949
(lp4950
(S'2013-05-10'
p4951
I1
tp4952
a(S'2013-05-17'
p4953
I2
tp4954
a(S'2013-05-24'
p4955
I3
tp4956
a(S'2013-05-31'
p4957
I2
tp4958
a(S'2013-06-07'
p4959
I3
tp4960
a(S'2013-06-14'
p4961
I3
tp4962
a(S'2013-06-21'
p4963
I7
tp4964
a(S'2013-06-28'
p4965
I12
tp4966
a(S'2013-07-05'
p4967
I11
tp4968
asVthe murder house 
p4969
(lp4970
(S'2015-10-16'
p4971
I2
tp4972
a(S'2015-10-23'
p4973
I4
tp4974
a(S'2015-10-30'
p4975
I4
tp4976
a(S'2015-11-06'
p4977
I7
tp4978
a(S'2015-11-13'
p4979
I11
tp4980
a(S'2015-11-20'
p4981
I13
tp4982
asVv is for vengeance 
p4983
(lp4984
(S'2011-12-02'
p4985
I2
tp4986
a(S'2011-12-09'
p4987
I5
tp4988
a(S'2011-12-16'
p4989
I9
tp4990
a(S'2011-12-23'
p4991
I11
tp4992
a(S'2011-12-30'
p4993
I12
tp4994
a(S'2012-01-06'
p4995
I15
tp4996
asVevery fifteen minutes 
p4997
(lp4998
(S'2015-05-01'
p4999
I5
tp5000
a(S'2015-05-08'
p5001
I12
tp5002
asVkill alex cross 
p5003
(lp5004
(S'2011-12-02'
p5005
I1
tp5006
a(S'2011-12-09'
p5007
I3
tp5008
a(S'2011-12-16'
p5009
I5
tp5010
a(S'2011-12-23'
p5011
I6
tp5012
a(S'2011-12-30'
p5013
I6
tp5014
a(S'2012-01-06'
p5015
I5
tp5016
a(S'2012-01-13'
p5017
I4
tp5018
a(S'2012-01-20'
p5019
I10
tp5020
a(S'2012-01-27'
p5021
I13
tp5022
a(S'2012-02-03'
p5023
I14
tp5024
asVstill life with bread crumbs 
p5025
(lp5026
(S'2014-02-14'
p5027
I3
tp5028
a(S'2014-02-21'
p5029
I9
tp5030
a(S'2014-02-28'
p5031
I9
tp5032
a(S'2014-03-07'
p5033
I10
tp5034
asVthe light between oceans 
p5035
(lp5036
(S'2012-08-17'
p5037
I13
tp5038
a(S'2012-08-24'
p5039
I12
tp5040
a(S'2012-08-31'
p5041
I11
tp5042
a(S'2012-09-07'
p5043
I8
tp5044
a(S'2012-09-14'
p5045
I11
tp5046
a(S'2012-09-21'
p5047
I10
tp5048
a(S'2013-06-07'
p5049
I12
tp5050
asVforever with me 
p5051
(lp5052
(S'2014-12-19'
p5053
I13
tp5054
asVthe wolf gift 
p5055
(lp5056
(S'2012-03-02'
p5057
I6
tp5058
asVdie again 
p5059
(lp5060
(S'2015-01-16'
p5061
I4
tp5062
asVkian 
p5063
(lp5064
(S'2015-11-06'
p5065
I9
tp5066
asVreaper's fall 
p5067
(lp5068
(S'2015-11-27'
p5069
I11
tp5070
asVthe winter sea 
p5071
(lp5072
(S'2011-06-24'
p5073
I11
tp5074
asVhard limit 
p5075
(lp5076
(S'2014-12-26'
p5077
I7
tp5078
asVfair game 
p5079
(lp5080
(S'2012-03-23'
p5081
I6
tp5082
asVthe skin collector 
p5083
(lp5084
(S'2014-05-30'
p5085
I6
tp5086
asVtrue 
p5087
(lp5088
(S'2013-12-27'
p5089
I14
tp5090
asVthe secret place 
p5091
(lp5092
(S'2014-09-19'
p5093
I5
tp5094
asVthe sum of all kisses 
p5095
(lp5096
(S'2013-11-15'
p5097
I10
tp5098
asVthe first phone call from heaven 
p5099
(lp5100
(S'2013-11-29'
p5101
I4
tp5102
a(S'2013-12-06'
p5103
I8
tp5104
a(S'2013-12-13'
p5105
I7
tp5106
a(S'2013-12-20'
p5107
I11
tp5108
a(S'2013-12-27'
p5109
I6
tp5110
a(S'2014-01-03'
p5111
I3
tp5112
a(S'2014-01-10'
p5113
I9
tp5114
asVsummer nights 
p5115
(lp5116
(S'2012-07-13'
p5117
I11
tp5118
asVdon't say a word 
p5119
(lp5120
(S'2013-05-10'
p5121
I19
tp5122
a(S'2013-05-24'
p5123
I11
tp5124
a(S'2013-05-31'
p5125
I8
tp5126
a(S'2013-06-07'
p5127
I5
tp5128
a(S'2014-08-08'
p5129
I15
tp5130
asVcome home 
p5131
(lp5132
(S'2012-04-27'
p5133
I9
tp5134
asVruin: part 3 
p5135
(lp5136
(S'2014-11-21'
p5137
I8
tp5138
asVthe keeper 
p5139
(lp5140
(S'2014-05-23'
p5141
I15
tp5142
asVnash 
p5143
(lp5144
(S'2014-05-16'
p5145
I9
tp5146
asVthe inner circle 
p5147
(lp5148
(S'2011-02-18'
p5149
I10
tp5150
asVthe nature of the beast 
p5151
(lp5152
(S'2015-09-11'
p5153
I4
tp5154
asVdeadly assets 
p5155
(lp5156
(S'2015-08-21'
p5157
I15
tp5158
asVthe snow angel 
p5159
(lp5160
(S'2011-11-11'
p5161
I10
tp5162
asVblind faith 
p5163
(lp5164
(S'2011-09-09'
p5165
I2
tp5166
a(S'2011-09-16'
p5167
I4
tp5168
a(S'2011-09-23'
p5169
I4
tp5170
a(S'2011-09-30'
p5171
I8
tp5172
a(S'2011-10-07'
p5173
I15
tp5174
asVpiranha 
p5175
(lp5176
(S'2015-06-12'
p5177
I3
tp5178
a(S'2015-06-19'
p5179
I14
tp5180
asVthe race 
p5181
(lp5182
(S'2011-09-23'
p5183
I9
tp5184
asVsmall wars 
p5185
(lp5186
(S'2015-09-04'
p5187
I5
tp5188
a(S'2015-09-11'
p5189
I9
tp5190
a(S'2015-09-18'
p5191
I13
tp5192
asVgod help the child 
p5193
(lp5194
(S'2015-05-08'
p5195
I9
tp5196
asVfifty shades freed 
p5197
(lp5198
(S'2012-03-23'
p5199
I7
tp5200
a(S'2012-03-30'
p5201
I3
tp5202
a(S'2012-04-06'
p5203
I4
tp5204
a(S'2012-04-13'
p5205
I5
tp5206
a(S'2012-04-20'
p5207
I3
tp5208
a(S'2012-04-27'
p5209
I4
tp5210
a(S'2012-05-04'
p5211
I3
tp5212
a(S'2012-05-11'
p5213
I3
tp5214
a(S'2012-05-18'
p5215
I3
tp5216
a(S'2012-05-25'
p5217
I3
tp5218
a(S'2012-06-01'
p5219
I3
tp5220
a(S'2012-06-08'
p5221
I3
tp5222
a(S'2012-06-15'
p5223
I3
tp5224
a(S'2012-06-22'
p5225
I3
tp5226
a(S'2012-06-29'
p5227
I3
tp5228
a(S'2012-07-06'
p5229
I3
tp5230
a(S'2012-07-13'
p5231
I3
tp5232
a(S'2012-07-20'
p5233
I3
tp5234
a(S'2012-07-27'
p5235
I3
tp5236
a(S'2012-08-03'
p5237
I3
tp5238
a(S'2012-08-10'
p5239
I3
tp5240
a(S'2012-08-17'
p5241
I3
tp5242
a(S'2012-08-24'
p5243
I3
tp5244
a(S'2012-08-31'
p5245
I3
tp5246
a(S'2012-09-07'
p5247
I3
tp5248
a(S'2012-09-14'
p5249
I3
tp5250
a(S'2012-09-21'
p5251
I2
tp5252
a(S'2012-09-28'
p5253
I4
tp5254
a(S'2012-10-05'
p5255
I4
tp5256
a(S'2012-10-12'
p5257
I4
tp5258
a(S'2012-10-19'
p5259
I6
tp5260
a(S'2012-10-26'
p5261
I6
tp5262
a(S'2012-11-02'
p5263
I6
tp5264
a(S'2012-11-09'
p5265
I6
tp5266
a(S'2012-11-16'
p5267
I7
tp5268
a(S'2012-11-23'
p5269
I7
tp5270
a(S'2012-11-30'
p5271
I10
tp5272
a(S'2012-12-07'
p5273
I11
tp5274
a(S'2012-12-21'
p5275
I13
tp5276
a(S'2012-12-28'
p5277
I13
tp5278
a(S'2013-01-04'
p5279
I13
tp5280
a(S'2013-01-11'
p5281
I11
tp5282
a(S'2013-01-18'
p5283
I7
tp5284
a(S'2013-01-25'
p5285
I9
tp5286
a(S'2013-02-01'
p5287
I7
tp5288
a(S'2013-02-08'
p5289
I9
tp5290
a(S'2013-02-15'
p5291
I9
tp5292
a(S'2013-02-22'
p5293
I8
tp5294
a(S'2013-03-01'
p5295
I11
tp5296
a(S'2013-03-08'
p5297
I13
tp5298
a(S'2013-03-15'
p5299
I15
tp5300
a(S'2013-03-29'
p5301
I18
tp5302
a(S'2013-09-27'
p5303
I15
tp5304
a(S'2015-02-20'
p5305
I11
tp5306
a(S'2015-02-27'
p5307
I8
tp5308
a(S'2015-03-06'
p5309
I4
tp5310
a(S'2015-03-13'
p5311
I7
tp5312
a(S'2015-03-20'
p5313
I7
tp5314
a(S'2015-03-27'
p5315
I12
tp5316
a(S'2015-04-03'
p5317
I14
tp5318
asVdark skye 
p5319
(lp5320
(S'2014-08-22'
p5321
I5
tp5322
asVthe fifth witness 
p5323
(lp5324
(S'2011-04-22'
p5325
I1
tp5326
a(S'2011-04-29'
p5327
I4
tp5328
a(S'2011-05-06'
p5329
I7
tp5330
a(S'2011-05-13'
p5331
I7
tp5332
a(S'2011-05-20'
p5333
I11
tp5334
a(S'2011-05-27'
p5335
I11
tp5336
a(S'2011-06-03'
p5337
I12
tp5338
a(S'2011-06-10'
p5339
I14
tp5340
asVact of war 
p5341
(lp5342
(S'2014-07-25'
p5343
I1
tp5344
a(S'2014-08-01'
p5345
I6
tp5346
a(S'2014-08-08'
p5347
I7
tp5348
a(S'2014-08-15'
p5349
I13
tp5350
asVconquer your love 
p5351
(lp5352
(S'2013-06-28'
p5353
I10
tp5354
a(S'2013-07-05'
p5355
I9
tp5356
asVdevil's bridge 
p5357
(lp5358
(S'2015-08-28'
p5359
I13
tp5360
asVlive by night 
p5361
(lp5362
(S'2012-10-19'
p5363
I13
tp5364
asVno time left 
p5365
(lp5366
(S'2011-05-20'
p5367
I7
tp5368
asVkiss the dead 
p5369
(lp5370
(S'2012-06-22'
p5371
I5
tp5372
asVwife by wednesday 
p5373
(lp5374
(S'2012-02-24'
p5375
I13
tp5376
asVthe shadowy horses 
p5377
(lp5378
(S'2013-04-26'
p5379
I20
tp5380
asVthe darkest secret 
p5381
(lp5382
(S'2011-04-15'
p5383
I11
tp5384
asVlost to you 
p5385
(lp5386
(S'2013-02-22'
p5387
I11
tp5388
asVmidnight in europe 
p5389
(lp5390
(S'2014-06-20'
p5391
I13
tp5392
asVthe japanese lover 
p5393
(lp5394
(S'2015-11-27'
p5395
I15
tp5396
asVbetrayal 
p5397
(lp5398
(S'2012-04-13'
p5399
I8
tp5400
a(S'2012-04-20'
p5401
I13
tp5402
asVangle of investigation 
p5403
(lp5404
(S'2011-11-18'
p5405
I7
tp5406
asVsilver bastard 
p5407
(lp5408
(S'2015-04-24'
p5409
I14
tp5410
asVthe shadows 
p5411
(lp5412
(S'2015-04-17'
p5413
I2
tp5414
asVthe man in the high castle 
p5415
(lp5416
(S'2015-12-11'
p5417
I13
tp5418
asVstygian's honor 
p5419
(lp5420
(S'2012-08-24'
p5421
I8
tp5422
asVthe dead in their vaulted arches 
p5423
(lp5424
(S'2014-01-31'
p5425
I12
tp5426
asV44 charles street 
p5427
(lp5428
(S'2011-04-22'
p5429
I7
tp5430
a(S'2011-04-29'
p5431
I12
tp5432
asVwish you well 
p5433
(lp5434
(S'2015-06-05'
p5435
I12
tp5436
asVtake down 
p5437
(lp5438
(S'2014-10-03'
p5439
I6
tp5440
asVempire and honor 
p5441
(lp5442
(S'2013-01-18'
p5443
I15
tp5444
asVa turn in the road 
p5445
(lp5446
(S'2011-05-13'
p5447
I11
tp5448
a(S'2011-05-27'
p5449
I14
tp5450
asVwelcome to night vale 
p5451
(lp5452
(S'2015-11-06'
p5453
I8
tp5454
asVmicro 
p5455
(lp5456
(S'2011-12-09'
p5457
I8
tp5458
a(S'2011-12-16'
p5459
I14
tp5460
a(S'2011-12-23'
p5461
I15
tp5462
asVbeautiful player 
p5463
(lp5464
(S'2013-11-15'
p5465
I7
tp5466
asVthe sweetest thing 
p5467
(lp5468
(S'2012-02-24'
p5469
I7
tp5470
a(S'2012-03-02'
p5471
I8
tp5472
a(S'2012-03-09'
p5473
I7
tp5474
a(S'2012-03-16'
p5475
I11
tp5476
asVprodigal son 
p5477
(lp5478
(S'2015-03-13'
p5479
I4
tp5480
a(S'2015-03-20'
p5481
I14
tp5482
asVbelieving the lie 
p5483
(lp5484
(S'2012-01-27'
p5485
I3
tp5486
asVonly time will tell 
p5487
(lp5488
(S'2014-02-14'
p5489
I7
tp5490
asVreconstructing amelia 
p5491
(lp5492
(S'2014-05-09'
p5493
I13
tp5494
asVfrankenstein: the dead town 
p5495
(lp5496
(S'2011-06-10'
p5497
I9
tp5498
asVflash and bones 
p5499
(lp5500
(S'2011-09-09'
p5501
I5
tp5502
asVthe broken eye 
p5503
(lp5504
(S'2014-09-12'
p5505
I11
tp5506
asVmagic rises 
p5507
(lp5508
(S'2013-08-16'
p5509
I9
tp5510
asVsave me 
p5511
(lp5512
(S'2011-04-29'
p5513
I14
tp5514
asVthe wanderer 
p5515
(lp5516
(S'2013-04-12'
p5517
I4
tp5518
a(S'2013-04-19'
p5519
I14
tp5520
a(S'2013-04-26'
p5521
I14
tp5522
a(S'2013-05-03'
p5523
I10
tp5524
asVfinders keepers 
p5525
(lp5526
(S'2015-06-19'
p5527
I1
tp5528
a(S'2015-06-26'
p5529
I3
tp5530
a(S'2015-07-03'
p5531
I9
tp5532
a(S'2015-07-10'
p5533
I9
tp5534
asVbloodfire quest 
p5535
(lp5536
(S'2013-03-29'
p5537
I20
tp5538
asVleaving 
p5539
(lp5540
(S'2011-04-08'
p5541
I9
tp5542
asVtime untime 
p5543
(lp5544
(S'2012-08-24'
p5545
I9
tp5546
asVthe old republic: revan 
p5547
(lp5548
(S'2011-12-02'
p5549
I14
tp5550
asVnow you see her 
p5551
(lp5552
(S'2011-07-15'
p5553
I1
tp5554
a(S'2011-07-22'
p5555
I2
tp5556
a(S'2011-07-29'
p5557
I3
tp5558
a(S'2011-08-05'
p5559
I4
tp5560
a(S'2011-08-12'
p5561
I5
tp5562
a(S'2011-08-19'
p5563
I3
tp5564
a(S'2011-08-26'
p5565
I3
tp5566
a(S'2011-09-02'
p5567
I5
tp5568
a(S'2011-09-09'
p5569
I11
tp5570
asVthe ocean at the end of the lane 
p5571
(lp5572
(S'2013-07-05'
p5573
I2
tp5574
a(S'2013-07-12'
p5575
I11
tp5576
a(S'2013-07-19'
p5577
I7
tp5578
a(S'2013-07-26'
p5579
I9
tp5580
a(S'2013-08-02'
p5581
I14
tp5582
asVcarte blanche 
p5583
(lp5584
(S'2011-07-01'
p5585
I7
tp5586
asVher last letter 
p5587
(lp5588
(S'2011-03-04'
p5589
I12
tp5590
asVthe good girl 
p5591
(lp5592
(S'2015-08-07'
p5593
I4
tp5594
a(S'2015-12-18'
p5595
I14
tp5596
asVinvisible 
p5597
(lp5598
(S'2014-07-11'
p5599
I1
tp5600
a(S'2014-07-18'
p5601
I1
tp5602
a(S'2014-07-25'
p5603
I4
tp5604
a(S'2014-08-01'
p5605
I5
tp5606
a(S'2014-08-08'
p5607
I9
tp5608
a(S'2014-08-15'
p5609
I14
tp5610
a(S'2014-08-29'
p5611
I14
tp5612
asVnaked greed 
p5613
(lp5614
(S'2015-07-31'
p5615
I6
tp5616
asVthe forgotten 
p5617
(lp5618
(S'2012-12-07'
p5619
I2
tp5620
a(S'2012-12-14'
p5621
I4
tp5622
a(S'2012-12-21'
p5623
I3
tp5624
a(S'2012-12-28'
p5625
I4
tp5626
a(S'2013-01-04'
p5627
I5
tp5628
a(S'2013-01-11'
p5629
I9
tp5630
a(S'2013-01-18'
p5631
I8
tp5632
a(S'2013-01-25'
p5633
I10
tp5634
a(S'2013-02-01'
p5635
I9
tp5636
a(S'2013-02-08'
p5637
I10
tp5638
a(S'2013-02-15'
p5639
I12
tp5640
a(S'2013-02-22'
p5641
I15
tp5642
a(S'2013-04-19'
p5643
I15
tp5644
a(S'2013-04-26'
p5645
I17
tp5646
a(S'2013-05-03'
p5647
I14
tp5648
asVdarkest before dawn 
p5649
(lp5650
(S'2015-11-13'
p5651
I8
tp5652
asVthe search 
p5653
(lp5654
(S'2011-04-29'
p5655
I11
tp5656
a(S'2011-05-06'
p5657
I11
tp5658
a(S'2011-05-20'
p5659
I15
tp5660
asVonly his 
p5661
(lp5662
(S'2011-10-14'
p5663
I8
tp5664
asVdeep down 
p5665
(lp5666
(S'2012-08-03'
p5667
I7
tp5668
a(S'2012-08-10'
p5669
I9
tp5670
a(S'2012-08-17'
p5671
I14
tp5672
asVspeaking in bones 
p5673
(lp5674
(S'2015-08-07'
p5675
I6
tp5676
asVhigh heat 
p5677
(lp5678
(S'2013-08-23'
p5679
I4
tp5680
a(S'2013-08-30'
p5681
I5
tp5682
a(S'2013-09-06'
p5683
I5
tp5684
a(S'2013-09-13'
p5685
I10
tp5686
asVmoving target 
p5687
(lp5688
(S'2014-03-07'
p5689
I12
tp5690
asVlawe's justice 
p5691
(lp5692
(S'2011-12-23'
p5693
I12
tp5694
asVbridget jones: mad about the boy 
p5695
(lp5696
(S'2013-11-01'
p5697
I6
tp5698
asVa night like this 
p5699
(lp5700
(S'2012-06-15'
p5701
I8
tp5702
asVcountry 
p5703
(lp5704
(S'2015-07-03'
p5705
I5
tp5706
asVnot a drill 
p5707
(lp5708
(S'2014-08-15'
p5709
I2
tp5710
a(S'2014-08-22'
p5711
I15
tp5712
a(S'2014-08-29'
p5713
I10
tp5714
a(S'2014-09-05'
p5715
I10
tp5716
asVnaked 
p5717
(lp5718
(S'2012-11-30'
p5719
I15
tp5720
asVsecond watch 
p5721
(lp5722
(S'2013-09-27'
p5723
I5
tp5724
asVthe secrets of sir richard kenworthy 
p5725
(lp5726
(S'2015-02-13'
p5727
I8
tp5728
asVone lucky vampire 
p5729
(lp5730
(S'2013-10-11'
p5731
I9
tp5732
asVwhat doesn't kill you 
p5733
(lp5734
(S'2012-05-04'
p5735
I10
tp5736
asVimmortal ever after 
p5737
(lp5738
(S'2013-03-15'
p5739
I8
tp5740
asVbonnie 
p5741
(lp5742
(S'2011-11-04'
p5743
I2
tp5744
asVnavarro's promise 
p5745
(lp5746
(S'2011-04-22'
p5747
I8
tp5748
asV1225 christmas tree lane 
p5749
(lp5750
(S'2011-10-14'
p5751
I3
tp5752
a(S'2011-10-21'
p5753
I14
tp5754
a(S'2011-11-25'
p5755
I14
tp5756
asVthe neighbor 
p5757
(lp5758
(S'2014-07-18'
p5759
I7
tp5760
asVthe husband's secret 
p5761
(lp5762
(S'2013-08-23'
p5763
I6
tp5764
a(S'2013-08-30'
p5765
I4
tp5766
a(S'2013-09-06'
p5767
I2
tp5768
a(S'2013-09-13'
p5769
I2
tp5770
a(S'2013-09-20'
p5771
I2
tp5772
a(S'2013-09-27'
p5773
I3
tp5774
a(S'2013-10-04'
p5775
I6
tp5776
a(S'2013-10-11'
p5777
I4
tp5778
a(S'2013-10-18'
p5779
I5
tp5780
a(S'2013-10-25'
p5781
I4
tp5782
a(S'2013-11-01'
p5783
I3
tp5784
a(S'2013-11-08'
p5785
I5
tp5786
a(S'2013-11-15'
p5787
I8
tp5788
a(S'2013-11-22'
p5789
I10
tp5790
a(S'2013-11-29'
p5791
I11
tp5792
a(S'2013-12-06'
p5793
I12
tp5794
a(S'2013-12-13'
p5795
I14
tp5796
a(S'2014-01-03'
p5797
I14
tp5798
a(S'2014-01-10'
p5799
I13
tp5800
a(S'2014-01-17'
p5801
I3
tp5802
a(S'2014-01-24'
p5803
I10
tp5804
a(S'2014-01-31'
p5805
I6
tp5806
a(S'2014-02-07'
p5807
I5
tp5808
a(S'2014-02-14'
p5809
I9
tp5810
a(S'2014-02-21'
p5811
I6
tp5812
a(S'2014-02-28'
p5813
I8
tp5814
a(S'2014-03-07'
p5815
I6
tp5816
a(S'2014-03-14'
p5817
I9
tp5818
a(S'2014-03-21'
p5819
I5
tp5820
a(S'2014-03-28'
p5821
I8
tp5822
a(S'2014-04-04'
p5823
I5
tp5824
a(S'2014-04-11'
p5825
I12
tp5826
a(S'2014-04-18'
p5827
I9
tp5828
a(S'2014-04-25'
p5829
I10
tp5830
a(S'2014-05-02'
p5831
I11
tp5832
a(S'2014-05-09'
p5833
I12
tp5834
a(S'2014-05-16'
p5835
I13
tp5836
a(S'2014-05-30'
p5837
I15
tp5838
a(S'2014-06-06'
p5839
I13
tp5840
a(S'2014-06-13'
p5841
I14
tp5842
a(S'2014-06-27'
p5843
I12
tp5844
a(S'2014-07-04'
p5845
I14
tp5846
a(S'2015-03-20'
p5847
I15
tp5848
a(S'2015-03-27'
p5849
I14
tp5850
a(S'2015-04-03'
p5851
I10
tp5852
a(S'2015-04-10'
p5853
I8
tp5854
a(S'2015-04-17'
p5855
I12
tp5856
a(S'2015-04-24'
p5857
I15
tp5858
a(S'2015-05-01'
p5859
I14
tp5860
asVtaken 
p5861
(lp5862
(S'2012-02-10'
p5863
I2
tp5864
a(S'2012-02-17'
p5865
I14
tp5866
asVin his keeping 
p5867
(lp5868
(S'2015-02-13'
p5869
I12
tp5870
asVradiant angel 
p5871
(lp5872
(S'2015-06-12'
p5873
I1
tp5874
a(S'2015-06-19'
p5875
I5
tp5876
a(S'2015-06-26'
p5877
I7
tp5878
a(S'2015-07-03'
p5879
I11
tp5880
asVbeautiful bastard 
p5881
(lp5882
(S'2013-03-01'
p5883
I9
tp5884
asVpale demon 
p5885
(lp5886
(S'2011-03-11'
p5887
I4
tp5888
asVsea glass island 
p5889
(lp5890
(S'2013-06-14'
p5891
I8
tp5892
asVbeach town 
p5893
(lp5894
(S'2015-06-05'
p5895
I6
tp5896
asVwhen i'm gone 
p5897
(lp5898
(S'2015-04-24'
p5899
I10
tp5900
asVcode of conduct 
p5901
(lp5902
(S'2015-07-24'
p5903
I4
tp5904
a(S'2015-07-31'
p5905
I8
tp5906
a(S'2015-08-07'
p5907
I9
tp5908
a(S'2015-08-14'
p5909
I10
tp5910
a(S'2015-08-21'
p5911
I11
tp5912
a(S'2015-08-28'
p5913
I14
tp5914
asVlover unleashed 
p5915
(lp5916
(S'2011-04-15'
p5917
I2
tp5918
asVtakedown twenty 
p5919
(lp5920
(S'2013-12-06'
p5921
I1
tp5922
a(S'2013-12-13'
p5923
I3
tp5924
a(S'2013-12-20'
p5925
I5
tp5926
a(S'2013-12-27'
p5927
I7
tp5928
a(S'2014-01-03'
p5929
I7
tp5930
a(S'2014-01-10'
p5931
I7
tp5932
a(S'2014-01-17'
p5933
I4
tp5934
asVthe arrangement 14 
p5935
(lp5936
(S'2014-03-14'
p5937
I12
tp5938
asVmoon 
p5939
(lp5940
(S'2013-05-17'
p5941
I6
tp5942
asVfalling for my best friend's brother 
p5943
(lp5944
(S'2015-03-13'
p5945
I9
tp5946
asVthe skull throne 
p5947
(lp5948
(S'2015-04-17'
p5949
I13
tp5950
asVcat's lair 
p5951
(lp5952
(S'2015-05-22'
p5953
I6
tp5954
asVoutlander 
p5955
(lp5956
(S'2014-01-17'
p5957
I12
tp5958
a(S'2014-08-22'
p5959
I1
tp5960
a(S'2014-08-29'
p5961
I1
tp5962
a(S'2014-09-05'
p5963
I1
tp5964
a(S'2014-09-12'
p5965
I7
tp5966
a(S'2014-09-19'
p5967
I6
tp5968
a(S'2014-09-26'
p5969
I6
tp5970
a(S'2014-10-03'
p5971
I4
tp5972
a(S'2014-10-10'
p5973
I5
tp5974
a(S'2014-10-17'
p5975
I6
tp5976
a(S'2014-10-24'
p5977
I12
tp5978
a(S'2014-10-31'
p5979
I11
tp5980
a(S'2015-04-17'
p5981
I15
tp5982
a(S'2015-04-24'
p5983
I8
tp5984
a(S'2015-05-01'
p5985
I9
tp5986
a(S'2015-05-08'
p5987
I11
tp5988
a(S'2015-05-15'
p5989
I14
tp5990
a(S'2015-05-29'
p5991
I13
tp5992
a(S'2015-06-19'
p5993
I15
tp5994
asVsuspect 
p5995
(lp5996
(S'2013-02-08'
p5997
I6
tp5998
a(S'2013-02-15'
p5999
I7
tp6000
a(S'2013-02-22'
p6001
I10
tp6002
asVthree two one (321) 
p6003
(lp6004
(S'2015-02-20'
p6005
I14
tp6006
asVbe careful what you wish for 
p6007
(lp6008
(S'2014-03-28'
p6009
I4
tp6010
a(S'2014-04-04'
p6011
I12
tp6012
asVthe darkest touch 
p6013
(lp6014
(S'2014-12-12'
p6015
I10
tp6016
asVfatal scandal 
p6017
(lp6018
(S'2015-01-30'
p6019
I9
tp6020
asVmerry christmas alex cross 
p6021
(lp6022
(S'2012-11-30'
p6023
I2
tp6024
a(S'2012-12-07'
p6025
I5
tp6026
a(S'2012-12-14'
p6027
I6
tp6028
a(S'2012-12-21'
p6029
I8
tp6030
a(S'2012-12-28'
p6031
I7
tp6032
a(S'2013-01-04'
p6033
I6
tp6034
a(S'2013-01-11'
p6035
I7
tp6036
a(S'2013-01-18'
p6037
I14
tp6038
asVlittle girl lost 
p6039
(lp6040
(S'2014-04-04'
p6041
I15
tp6042
a(S'2014-04-11'
p6043
I6
tp6044
a(S'2014-04-18'
p6045
I10
tp6046
a(S'2014-05-02'
p6047
I15
tp6048
a(S'2014-05-09'
p6049
I15
tp6050
asVuntil july 
p6051
(lp6052
(S'2015-05-01'
p6053
I10
tp6054
asVgoddess of vengeance 
p6055
(lp6056
(S'2011-09-30'
p6057
I14
tp6058
asVthe marriage bargain 
p6059
(lp6060
(S'2012-04-20'
p6061
I15
tp6062
a(S'2012-04-27'
p6063
I10
tp6064
a(S'2012-05-04'
p6065
I13
tp6066
a(S'2012-05-11'
p6067
I15
tp6068
a(S'2012-05-18'
p6069
I12
tp6070
a(S'2012-05-25'
p6071
I14
tp6072
a(S'2012-06-01'
p6073
I14
tp6074
a(S'2012-06-08'
p6075
I9
tp6076
a(S'2012-06-15'
p6077
I11
tp6078
a(S'2012-06-22'
p6079
I13
tp6080
a(S'2012-06-29'
p6081
I14
tp6082
a(S'2012-07-06'
p6083
I9
tp6084
a(S'2012-07-13'
p6085
I15
tp6086
a(S'2012-07-20'
p6087
I12
tp6088
a(S'2012-07-27'
p6089
I12
tp6090
a(S'2012-08-03'
p6091
I13
tp6092
a(S'2012-08-31'
p6093
I15
tp6094
asVthe art of racing in the rain 
p6095
(lp6096
(S'2011-12-16'
p6097
I13
tp6098
asVthe litigators 
p6099
(lp6100
(S'2011-11-11'
p6101
I1
tp6102
a(S'2011-11-18'
p6103
I3
tp6104
a(S'2011-11-25'
p6105
I2
tp6106
a(S'2011-12-02'
p6107
I4
tp6108
a(S'2011-12-09'
p6109
I4
tp6110
a(S'2011-12-16'
p6111
I4
tp6112
a(S'2011-12-23'
p6113
I4
tp6114
a(S'2011-12-30'
p6115
I4
tp6116
a(S'2012-01-06'
p6117
I4
tp6118
a(S'2012-01-13'
p6119
I5
tp6120
a(S'2012-01-20'
p6121
I8
tp6122
a(S'2012-01-27'
p6123
I11
tp6124
a(S'2012-02-03'
p6125
I9
tp6126
a(S'2012-02-10'
p6127
I12
tp6128
a(S'2012-02-17'
p6129
I15
tp6130
a(S'2012-02-24'
p6131
I15
tp6132
a(S'2012-07-20'
p6133
I10
tp6134
a(S'2012-07-27'
p6135
I11
tp6136
a(S'2012-08-03'
p6137
I15
tp6138
asVthe substitute 
p6139
(lp6140
(S'2015-06-26'
p6141
I13
tp6142
asVthe silver star 
p6143
(lp6144
(S'2013-06-28'
p6145
I8
tp6146
asVwayfaring stranger 
p6147
(lp6148
(S'2014-08-01'
p6149
I14
tp6150
asVgideon\u2019s corpse 
p6151
(lp6152
(S'2012-01-27'
p6153
I14
tp6154
asVthe bazaar of bad dreams 
p6155
(lp6156
(S'2015-11-20'
p6157
I3
tp6158
a(S'2015-11-27'
p6159
I6
tp6160
a(S'2015-12-04'
p6161
I10
tp6162
a(S'2015-12-11'
p6163
I8
tp6164
a(S'2015-12-18'
p6165
I13
tp6166
a(S'2015-12-25'
p6167
I11
tp6168
asVa delicate truth 
p6169
(lp6170
(S'2013-05-24'
p6171
I9
tp6172
asVsycamore row 
p6173
(lp6174
(S'2013-11-08'
p6175
I1
tp6176
a(S'2013-11-15'
p6177
I2
tp6178
a(S'2013-11-22'
p6179
I1
tp6180
a(S'2013-11-29'
p6181
I1
tp6182
a(S'2013-12-06'
p6183
I3
tp6184
a(S'2013-12-13'
p6185
I2
tp6186
a(S'2013-12-20'
p6187
I3
tp6188
a(S'2013-12-27'
p6189
I1
tp6190
a(S'2014-01-03'
p6191
I1
tp6192
a(S'2014-01-10'
p6193
I1
tp6194
a(S'2014-01-17'
p6195
I1
tp6196
a(S'2014-01-24'
p6197
I5
tp6198
a(S'2014-01-31'
p6199
I2
tp6200
a(S'2014-02-07'
p6201
I3
tp6202
a(S'2014-02-14'
p6203
I5
tp6204
a(S'2014-02-21'
p6205
I4
tp6206
a(S'2014-02-28'
p6207
I5
tp6208
a(S'2014-03-07'
p6209
I4
tp6210
a(S'2014-03-14'
p6211
I10
tp6212
a(S'2014-03-21'
p6213
I8
tp6214
a(S'2014-03-28'
p6215
I10
tp6216
a(S'2014-04-04'
p6217
I11
tp6218
a(S'2014-04-18'
p6219
I13
tp6220
a(S'2014-09-05'
p6221
I7
tp6222
a(S'2014-09-12'
p6223
I9
tp6224
a(S'2014-09-19'
p6225
I15
tp6226
a(S'2014-09-26'
p6227
I13
tp6228
a(S'2014-10-03'
p6229
I14
tp6230
asVsing you home 
p6231
(lp6232
(S'2011-03-18'
p6233
I1
tp6234
a(S'2011-03-25'
p6235
I3
tp6236
a(S'2011-04-01'
p6237
I4
tp6238
a(S'2011-04-08'
p6239
I4
tp6240
a(S'2011-04-15'
p6241
I8
tp6242
a(S'2011-04-22'
p6243
I13
tp6244
asVprivate india 
p6245
(lp6246
(S'2014-11-28'
p6247
I15
tp6248
asVangel falls 
p6249
(lp6250
(S'2015-10-09'
p6251
I8
tp6252
asVfestive in death 
p6253
(lp6254
(S'2014-09-26'
p6255
I1
tp6256
a(S'2014-10-03'
p6257
I9
tp6258
asVdelusion in death 
p6259
(lp6260
(S'2012-09-28'
p6261
I3
tp6262
a(S'2012-10-05'
p6263
I13
tp6264
asVundercover 
p6265
(lp6266
(S'2015-09-18'
p6267
I5
tp6268
asVthe fixed trilogy 
p6269
(lp6270
(S'2014-04-04'
p6271
I2
tp6272
a(S'2014-04-11'
p6273
I4
tp6274
a(S'2014-04-18'
p6275
I3
tp6276
a(S'2014-04-25'
p6277
I2
tp6278
a(S'2014-05-02'
p6279
I5
tp6280
a(S'2014-05-09'
p6281
I7
tp6282
asVone plus one 
p6283
(lp6284
(S'2014-07-18'
p6285
I13
tp6286
asVdeadlocked 
p6287
(lp6288
(S'2012-05-18'
p6289
I5
tp6290
a(S'2012-05-25'
p6291
I6
tp6292
a(S'2012-06-01'
p6293
I10
tp6294
a(S'2012-06-08'
p6295
I12
tp6296
asVblood kiss 
p6297
(lp6298
(S'2015-12-18'
p6299
I7
tp6300
asVbullseye 
p6301
(lp6302
(S'2014-02-21'
p6303
I7
tp6304
asVwicked business 
p6305
(lp6306
(S'2012-07-06'
p6307
I4
tp6308
a(S'2012-07-13'
p6309
I12
tp6310
a(S'2012-07-20'
p6311
I14
tp6312
a(S'2015-05-22'
p6313
I13
tp6314
asVbones are forever 
p6315
(lp6316
(S'2012-09-14'
p6317
I7
tp6318
a(S'2013-05-10'
p6319
I15
tp6320
asVtick tock 
p6321
(lp6322
(S'2011-02-18'
p6323
I1
tp6324
a(S'2011-02-25'
p6325
I1
tp6326
a(S'2011-03-04'
p6327
I2
tp6328
a(S'2011-03-11'
p6329
I6
tp6330
a(S'2011-03-18'
p6331
I5
tp6332
a(S'2011-03-25'
p6333
I8
tp6334
a(S'2011-04-01'
p6335
I11
tp6336
asVthe troubled man 
p6337
(lp6338
(S'2011-04-15'
p6339
I15
tp6340
asVmissing you 
p6341
(lp6342
(S'2014-04-04'
p6343
I1
tp6344
a(S'2014-04-11'
p6345
I3
tp6346
a(S'2014-04-18'
p6347
I5
tp6348
a(S'2014-04-25'
p6349
I3
tp6350
a(S'2014-05-02'
p6351
I8
tp6352
a(S'2014-05-09'
p6353
I14
tp6354
asVjoyland 
p6355
(lp6356
(S'2013-06-21'
p6357
I4
tp6358
a(S'2013-06-28'
p6359
I7
tp6360
a(S'2013-07-05'
p6361
I14
tp6362
asVodd interlude #2 
p6363
(lp6364
(S'2012-07-06'
p6365
I14
tp6366
asVthree sisters 
p6367
(lp6368
(S'2013-03-29'
p6369
I6
tp6370
a(S'2013-04-05'
p6371
I9
tp6372
a(S'2013-04-12'
p6373
I11
tp6374
asVthe saturday big tent wedding party 
p6375
(lp6376
(S'2011-04-08'
p6377
I8
tp6378
asVthe kill switch 
p6379
(lp6380
(S'2014-05-30'
p6381
I12
tp6382
asVseveneves 
p6383
(lp6384
(S'2015-06-05'
p6385
I5
tp6386
asVbeautiful beloved 
p6387
(lp6388
(S'2015-02-20'
p6389
I13
tp6390
asVmile 81 
p6391
(lp6392
(S'2011-09-23'
p6393
I5
tp6394
a(S'2011-09-30'
p6395
I11
tp6396
asVsacr bleu 
p6397
(lp6398
(S'2012-04-20'
p6399
I8
tp6400
asVcrystal cove 
p6401
(lp6402
(S'2013-02-22'
p6403
I12
tp6404
asVcold cold heart 
p6405
(lp6406
(S'2015-01-30'
p6407
I6
tp6408
asVthe city 
p6409
(lp6410
(S'2014-07-18'
p6411
I5
tp6412
asVworth the fight 
p6413
(lp6414
(S'2013-10-25'
p6415
I12
tp6416
asVstrategic moves 
p6417
(lp6418
(S'2011-02-18'
p6419
I12
tp6420
a(S'2011-02-25'
p6421
I15
tp6422
asVif you stay 
p6423
(lp6424
(S'2013-03-01'
p6425
I14
tp6426
a(S'2013-03-08'
p6427
I9
tp6428
asVthe buried giant 
p6429
(lp6430
(S'2015-03-20'
p6431
I13
tp6432
asVthe last man 
p6433
(lp6434
(S'2012-11-30'
p6435
I1
tp6436
a(S'2012-12-07'
p6437
I3
tp6438
a(S'2012-12-14'
p6439
I8
tp6440
a(S'2012-12-21'
p6441
I12
tp6442
a(S'2012-12-28'
p6443
I11
tp6444
a(S'2013-01-04'
p6445
I15
tp6446
asVnemesis 
p6447
(lp6448
(S'2015-07-24'
p6449
I3
tp6450
a(S'2015-07-31'
p6451
I12
tp6452
a(S'2015-08-07'
p6453
I14
tp6454
asVdeacon 
p6455
(lp6456
(S'2014-10-10'
p6457
I7
tp6458
asVsomewhere safe with somebody good 
p6459
(lp6460
(S'2014-09-19'
p6461
I2
tp6462
a(S'2014-09-26'
p6463
I9
tp6464
a(S'2014-10-03'
p6465
I8
tp6466
a(S'2014-10-10'
p6467
I13
tp6468
asVthe storm 
p6469
(lp6470
(S'2012-06-15'
p6471
I4
tp6472
asVwillow brook road 
p6473
(lp6474
(S'2015-10-16'
p6475
I8
tp6476
asVthis man confessed 
p6477
(lp6478
(S'2013-07-19'
p6479
I3
tp6480
asVthe president's shadow 
p6481
(lp6482
(S'2015-07-03'
p6483
I6
tp6484
asVdeadly heat 
p6485
(lp6486
(S'2013-10-04'
p6487
I8
tp6488
asVa prayer for owen meany 
p6489
(lp6490
(S'2013-05-17'
p6491
I9
tp6492
asVunder a vampire moon 
p6493
(lp6494
(S'2012-05-11'
p6495
I14
tp6496
asVjust one evil act 
p6497
(lp6498
(S'2013-11-01'
p6499
I1
tp6500
asVthe ideal man 
p6501
(lp6502
(S'2011-08-26'
p6503
I2
tp6504
asVthe lucky one 
p6505
(lp6506
(S'2012-03-02'
p6507
I12
tp6508
a(S'2012-03-09'
p6509
I11
tp6510
a(S'2012-03-16'
p6511
I6
tp6512
a(S'2012-03-23'
p6513
I3
tp6514
a(S'2012-03-30'
p6515
I4
tp6516
a(S'2012-04-06'
p6517
I5
tp6518
a(S'2012-04-13'
p6519
I6
tp6520
a(S'2012-04-20'
p6521
I4
tp6522
a(S'2012-04-27'
p6523
I5
tp6524
a(S'2012-05-04'
p6525
I6
tp6526
a(S'2012-05-11'
p6527
I5
tp6528
a(S'2012-05-18'
p6529
I7
tp6530
a(S'2012-05-25'
p6531
I9
tp6532
a(S'2012-06-01'
p6533
I12
tp6534
a(S'2012-06-08'
p6535
I15
tp6536
asVfour week fianc 
p6537
(lp6538
(S'2015-09-04'
p6539
I11
tp6540
asVcorps security: the series 
p6541
(lp6542
(S'2015-01-30'
p6543
I12
tp6544
asValpha bad boys 
p6545
(lp6546
(S'2013-08-02'
p6547
I11
tp6548
asVwait for you 
p6549
(lp6550
(S'2013-03-22'
p6551
I2
tp6552
a(S'2013-03-29'
p6553
I2
tp6554
a(S'2013-04-05'
p6555
I2
tp6556
a(S'2013-04-12'
p6557
I13
tp6558
asVlike a mighty army 
p6559
(lp6560
(S'2014-03-07'
p6561
I11
tp6562
asVdragonfly in amber 
p6563
(lp6564
(S'2014-08-29'
p6565
I13
tp6566
a(S'2014-09-05'
p6567
I9
tp6568
a(S'2014-09-12'
p6569
I14
tp6570
a(S'2014-10-03'
p6571
I11
tp6572
a(S'2014-10-10'
p6573
I11
tp6574
a(S'2014-10-17'
p6575
I9
tp6576
asVblood magick 
p6577
(lp6578
(S'2014-11-14'
p6579
I1
tp6580
a(S'2014-11-21'
p6581
I4
tp6582
a(S'2014-11-28'
p6583
I9
tp6584
a(S'2014-12-05'
p6585
I13
tp6586
asVthe eye of god 
p6587
(lp6588
(S'2013-07-12'
p6589
I8
tp6590
asVa shiver of light 
p6591
(lp6592
(S'2014-06-20'
p6593
I2
tp6594
asVburned 
p6595
(lp6596
(S'2015-02-06'
p6597
I4
tp6598
asVonly a kiss 
p6599
(lp6600
(S'2015-09-18'
p6601
I15
tp6602
asVthe last original wife 
p6603
(lp6604
(S'2013-06-28'
p6605
I13
tp6606
asVcaptivated by you 
p6607
(lp6608
(S'2014-12-05'
p6609
I1
tp6610
a(S'2014-12-12'
p6611
I6
tp6612
a(S'2014-12-19'
p6613
I10
tp6614
a(S'2014-12-26'
p6615
I13
tp6616
a(S'2015-01-02'
p6617
I11
tp6618
asVconfess 
p6619
(lp6620
(S'2015-03-27'
p6621
I9
tp6622
asVfeast day of fools 
p6623
(lp6624
(S'2011-10-14'
p6625
I7
tp6626
asVcity on fire 
p6627
(lp6628
(S'2015-10-30'
p6629
I12
tp6630
asVsomeone to love 
p6631
(lp6632
(S'2013-01-18'
p6633
I10
tp6634
a(S'2013-01-25'
p6635
I11
tp6636
a(S'2013-02-01'
p6637
I6
tp6638
a(S'2013-02-08'
p6639
I12
tp6640
asVany other name 
p6641
(lp6642
(S'2014-05-30'
p6643
I9
tp6644
asVcollide 
p6645
(lp6646
(S'2013-02-15'
p6647
I6
tp6648
asVyour next breath 
p6649
(lp6650
(S'2015-05-15'
p6651
I7
tp6652
asVhard love 
p6653
(lp6654
(S'2015-10-02'
p6655
I6
tp6656
asVsomething witchy this way comes 
p6657
(lp6658
(S'2012-10-12'
p6659
I15
tp6660
asVrome 
p6661
(lp6662
(S'2014-01-24'
p6663
I12
tp6664
asVthe drop 
p6665
(lp6666
(S'2011-12-16'
p6667
I1
tp6668
a(S'2011-12-23'
p6669
I5
tp6670
a(S'2011-12-30'
p6671
I8
tp6672
a(S'2012-01-06'
p6673
I12
tp6674
a(S'2012-01-20'
p6675
I13
tp6676
a(S'2012-01-27'
p6677
I15
tp6678
asVthe insider threat 
p6679
(lp6680
(S'2015-07-17'
p6681
I9
tp6682
asVlove letters 
p6683
(lp6684
(S'2014-08-29'
p6685
I2
tp6686
asVtom clancy: support and defend 
p6687
(lp6688
(S'2014-08-08'
p6689
I5
tp6690
asVthe christmas wedding 
p6691
(lp6692
(S'2011-11-04'
p6693
I3
tp6694
a(S'2011-11-11'
p6695
I5
tp6696
a(S'2011-11-18'
p6697
I8
tp6698
a(S'2011-11-25'
p6699
I8
tp6700
a(S'2011-12-02'
p6701
I12
tp6702
a(S'2011-12-09'
p6703
I14
tp6704
asVi michael bennett 
p6705
(lp6706
(S'2012-07-27'
p6707
I6
tp6708
a(S'2012-08-03'
p6709
I8
tp6710
a(S'2012-08-10'
p6711
I12
tp6712
a(S'2012-08-17'
p6713
I15
tp6714
a(S'2012-08-24'
p6715
I15
tp6716
asVtaking eve 
p6717
(lp6718
(S'2013-05-03'
p6719
I3
tp6720
asV11/22/63 
p6721
(lp6722
(S'2011-11-25'
p6723
I1
tp6724
a(S'2011-12-02'
p6725
I3
tp6726
a(S'2011-12-09'
p6727
I2
tp6728
a(S'2011-12-16'
p6729
I2
tp6730
a(S'2011-12-23'
p6731
I3
tp6732
a(S'2011-12-30'
p6733
I1
tp6734
a(S'2012-01-06'
p6735
I3
tp6736
a(S'2012-01-13'
p6737
I3
tp6738
a(S'2012-01-20'
p6739
I5
tp6740
a(S'2012-01-27'
p6741
I8
tp6742
a(S'2012-02-03'
p6743
I8
tp6744
a(S'2012-02-10'
p6745
I10
tp6746
a(S'2012-02-17'
p6747
I12
tp6748
a(S'2012-02-24'
p6749
I12
tp6750
a(S'2012-03-02'
p6751
I15
tp6752
a(S'2012-03-09'
p6753
I15
tp6754
a(S'2013-01-11'
p6755
I15
tp6756
a(S'2013-12-06'
p6757
I4
tp6758
asVthe target 
p6759
(lp6760
(S'2014-05-09'
p6761
I1
tp6762
a(S'2014-05-16'
p6763
I1
tp6764
a(S'2014-05-23'
p6765
I3
tp6766
a(S'2014-05-30'
p6767
I3
tp6768
a(S'2014-06-06'
p6769
I6
tp6770
a(S'2014-06-13'
p6771
I9
tp6772
a(S'2014-06-20'
p6773
I10
tp6774
a(S'2014-06-27'
p6775
I7
tp6776
a(S'2014-07-04'
p6777
I13
tp6778
asVeve 
p6779
(lp6780
(S'2011-05-06'
p6781
I8
tp6782
asVhardline 
p6783
(lp6784
(S'2014-07-04'
p6785
I12
tp6786
asVthe escape 
p6787
(lp6788
(S'2014-07-18'
p6789
I12
tp6790
a(S'2014-12-05'
p6791
I2
tp6792
a(S'2014-12-12'
p6793
I2
tp6794
a(S'2014-12-19'
p6795
I2
tp6796
a(S'2014-12-26'
p6797
I2
tp6798
a(S'2015-01-02'
p6799
I5
tp6800
a(S'2015-01-09'
p6801
I5
tp6802
a(S'2015-01-16'
p6803
I6
tp6804
a(S'2015-01-23'
p6805
I7
tp6806
a(S'2015-01-30'
p6807
I11
tp6808
a(S'2015-02-06'
p6809
I9
tp6810
a(S'2015-02-13'
p6811
I14
tp6812
a(S'2015-04-10'
p6813
I11
tp6814
asVviscount breckenridge to the rescue 
p6815
(lp6816
(S'2011-09-16'
p6817
I15
tp6818
asVa spool of blue thread 
p6819
(lp6820
(S'2015-02-27'
p6821
I6
tp6822
a(S'2015-03-06'
p6823
I9
tp6824
a(S'2015-03-13'
p6825
I12
tp6826
a(S'2015-03-20'
p6827
I8
tp6828
a(S'2015-03-27'
p6829
I5
tp6830
a(S'2015-04-03'
p6831
I7
tp6832
a(S'2015-04-10'
p6833
I7
tp6834
a(S'2015-04-17'
p6835
I14
tp6836
asVcircling the sun 
p6837
(lp6838
(S'2015-08-14'
p6839
I6
tp6840
a(S'2015-08-21'
p6841
I12
tp6842
a(S'2015-08-28'
p6843
I12
tp6844
a(S'2015-09-04'
p6845
I15
tp6846
asVa knight of the seven kingdoms 
p6847
(lp6848
(S'2015-10-23'
p6849
I3
tp6850
a(S'2015-10-30'
p6851
I15
tp6852
asVthe king's deception 
p6853
(lp6854
(S'2013-06-28'
p6855
I11
tp6856
asVthe land of painted caves 
p6857
(lp6858
(S'2011-04-15'
p6859
I1
tp6860
a(S'2011-04-22'
p6861
I6
tp6862
a(S'2011-04-29'
p6863
I8
tp6864
a(S'2011-05-06'
p6865
I10
tp6866
a(S'2011-05-20'
p6867
I14
tp6868
asVthe alchemist 
p6869
(lp6870
(S'2014-03-28'
p6871
I13
tp6872
a(S'2014-09-26'
p6873
I5
tp6874
a(S'2014-10-03'
p6875
I5
tp6876
a(S'2014-10-10'
p6877
I12
tp6878
a(S'2015-01-09'
p6879
I15
tp6880
asVthe sins of the mother 
p6881
(lp6882
(S'2012-11-16'
p6883
I3
tp6884
asVthe third kingdom 
p6885
(lp6886
(S'2013-09-06'
p6887
I11
tp6888
asVthe third gate 
p6889
(lp6890
(S'2012-06-29'
p6891
I7
tp6892
asVsilent run 
p6893
(lp6894
(S'2011-09-30'
p6895
I15
tp6896
asVparis match 
p6897
(lp6898
(S'2014-10-24'
p6899
I5
tp6900
asVthe secret keeper 
p6901
(lp6902
(S'2012-11-02'
p6903
I11
tp6904
asVbeautiful oblivion 
p6905
(lp6906
(S'2014-07-18'
p6907
I4
tp6908
asVretribution 
p6909
(lp6910
(S'2011-08-19'
p6911
I6
tp6912
asVpurity 
p6913
(lp6914
(S'2015-09-18'
p6915
I4
tp6916
a(S'2015-09-25'
p6917
I14
tp6918
asVtop secret twenty-one 
p6919
(lp6920
(S'2014-07-04'
p6921
I1
tp6922
a(S'2014-07-11'
p6923
I2
tp6924
a(S'2014-07-18'
p6925
I2
tp6926
a(S'2014-07-25'
p6927
I5
tp6928
a(S'2014-08-01'
p6929
I8
tp6930
a(S'2014-08-08'
p6931
I14
tp6932
asVbig sky secrets 
p6933
(lp6934
(S'2014-01-17'
p6935
I6
tp6936
asVsunrise point 
p6937
(lp6938
(S'2012-05-11'
p6939
I6
tp6940
asVwords of radiance 
p6941
(lp6942
(S'2014-03-21'
p6943
I1
tp6944
a(S'2014-03-28'
p6945
I11
tp6946
asVleopard's prey 
p6947
(lp6948
(S'2013-06-14'
p6949
I12
tp6950
asVthe lost years 
p6951
(lp6952
(S'2012-04-20'
p6953
I5
tp6954
a(S'2012-04-27'
p6955
I11
tp6956
asVlosing hope 
p6957
(lp6958
(S'2013-07-26'
p6959
I7
tp6960
asVdouble dare 
p6961
(lp6962
(S'2015-05-15'
p6963
I15
tp6964
asV10th anniversary 
p6965
(lp6966
(S'2011-05-20'
p6967
I2
tp6968
a(S'2011-05-27'
p6969
I4
tp6970
a(S'2011-06-03'
p6971
I3
tp6972
a(S'2011-06-10'
p6973
I4
tp6974
a(S'2011-06-17'
p6975
I3
tp6976
a(S'2011-06-24'
p6977
I7
tp6978
a(S'2011-07-01'
p6979
I8
tp6980
a(S'2011-07-08'
p6981
I14
tp6982
asVredeployment 
p6983
(lp6984
(S'2015-01-02'
p6985
I15
tp6986
asVthe perfect witness 
p6987
(lp6988
(S'2014-10-17'
p6989
I11
tp6990
asVthe 7th month 
p6991
(lp6992
(S'2012-01-27'
p6993
I9
tp6994
asVthe bourbon kings 
p6995
(lp6996
(S'2015-08-14'
p6997
I14
tp6998
asVfatal error 
p6999
(lp7000
(S'2011-02-18'
p7001
I14
tp7002
asVrapture 
p7003
(lp7004
(S'2012-10-12'
p7005
I10
tp7006
asVthree little words 
p7007
(lp7008
(S'2013-08-16'
p7009
I4
tp7010
asVafter dead 
p7011
(lp7012
(S'2013-11-15'
p7013
I5
tp7014
asVlove in a nutshell 
p7015
(lp7016
(S'2012-01-20'
p7017
I6
tp7018
asVsave the date 
p7019
(lp7020
(S'2014-06-20'
p7021
I11
tp7022
asVwyoming bold 
p7023
(lp7024
(S'2013-11-15'
p7025
I14
tp7026
asVchristmas on 4th street 
p7027
(lp7028
(S'2013-10-11'
p7029
I12
tp7030
asVabraham lincoln: vampire hunter 
p7031
(lp7032
(S'2012-06-22'
p7033
I11
tp7034
a(S'2012-06-29'
p7035
I8
tp7036
a(S'2012-07-06'
p7037
I8
tp7038
a(S'2012-07-13'
p7039
I14
tp7040
a(S'2012-07-20'
p7041
I15
tp7042
asVbound by flames 
p7043
(lp7044
(S'2015-02-13'
p7045
I10
tp7046
asVsummer days 
p7047
(lp7048
(S'2012-06-15'
p7049
I13
tp7050
asVthe silver linings playbook 
p7051
(lp7052
(S'2013-02-15'
p7053
I14
tp7054
a(S'2013-02-22'
p7055
I7
tp7056
a(S'2013-03-01'
p7057
I12
tp7058
a(S'2013-03-08'
p7059
I10
tp7060
a(S'2013-03-15'
p7061
I6
tp7062
a(S'2013-03-22'
p7063
I14
tp7064
a(S'2013-03-29'
p7065
I13
tp7066
a(S'2013-04-05'
p7067
I17
tp7068
a(S'2013-04-26'
p7069
I18
tp7070
a(S'2013-05-03'
p7071
I17
tp7072
a(S'2013-05-17'
p7073
I15
tp7074
a(S'2013-05-24'
p7075
I12
tp7076
a(S'2013-05-31'
p7077
I12
tp7078
asVviper game 
p7079
(lp7080
(S'2015-02-13'
p7081
I5
tp7082
asVi love how you love me 
p7083
(lp7084
(S'2014-10-31'
p7085
I12
tp7086
asVthe pact 
p7087
(lp7088
(S'2015-01-16'
p7089
I9
tp7090
a(S'2015-01-23'
p7091
I13
tp7092
asVcreole belle 
p7093
(lp7094
(S'2012-08-03'
p7095
I10
tp7096
asVcutting for stone 
p7097
(lp7098
(S'2011-02-18'
p7099
I6
tp7100
a(S'2011-02-25'
p7101
I8
tp7102
a(S'2011-03-04'
p7103
I9
tp7104
a(S'2011-03-11'
p7105
I12
tp7106
a(S'2011-03-18'
p7107
I14
tp7108
a(S'2011-03-25'
p7109
I12
tp7110
a(S'2011-04-01'
p7111
I10
tp7112
a(S'2011-04-08'
p7113
I13
tp7114
a(S'2011-04-29'
p7115
I15
tp7116
asVshadow play 
p7117
(lp7118
(S'2015-10-16'
p7119
I12
tp7120
asVthe stranger 
p7121
(lp7122
(S'2013-04-05'
p7123
I12
tp7124
a(S'2013-04-12'
p7125
I20
tp7126
a(S'2013-04-19'
p7127
I17
tp7128
a(S'2015-04-10'
p7129
I2
tp7130
a(S'2015-04-17'
p7131
I3
tp7132
a(S'2015-04-24'
p7133
I4
tp7134
a(S'2015-05-01'
p7135
I3
tp7136
a(S'2015-05-08'
p7137
I6
tp7138
a(S'2015-05-15'
p7139
I9
tp7140
a(S'2015-05-22'
p7141
I14
tp7142
asVthe girl who kicked the hornet\u2019s nest 
p7143
(lp7144
(S'2011-02-18'
p7145
I4
tp7146
a(S'2011-02-25'
p7147
I5
tp7148
a(S'2011-03-04'
p7149
I6
tp7150
a(S'2011-03-11'
p7151
I8
tp7152
a(S'2011-03-18'
p7153
I6
tp7154
a(S'2011-03-25'
p7155
I5
tp7156
a(S'2011-04-01'
p7157
I6
tp7158
a(S'2011-04-08'
p7159
I6
tp7160
a(S'2011-04-15'
p7161
I9
tp7162
a(S'2011-04-22'
p7163
I10
tp7164
a(S'2011-04-29'
p7165
I10
tp7166
a(S'2011-05-06'
p7167
I14
tp7168
a(S'2011-05-27'
p7169
I12
tp7170
a(S'2011-06-03'
p7171
I13
tp7172
a(S'2011-06-10'
p7173
I15
tp7174
a(S'2011-07-22'
p7175
I15
tp7176
a(S'2012-01-06'
p7177
I14
tp7178
a(S'2012-01-13'
p7179
I13
tp7180
a(S'2012-01-20'
p7181
I9
tp7182
a(S'2012-01-27'
p7183
I10
tp7184
a(S'2012-02-03'
p7185
I7
tp7186
a(S'2012-02-10'
p7187
I9
tp7188
a(S'2012-02-17'
p7189
I10
tp7190
a(S'2012-02-24'
p7191
I10
tp7192
a(S'2012-03-02'
p7193
I10
tp7194
a(S'2012-03-09'
p7195
I2
tp7196
a(S'2012-03-16'
p7197
I5
tp7198
a(S'2012-03-23'
p7199
I5
tp7200
a(S'2012-03-30'
p7201
I5
tp7202
a(S'2012-04-06'
p7203
I6
tp7204
a(S'2012-04-13'
p7205
I10
tp7206
a(S'2012-04-20'
p7207
I10
tp7208
a(S'2012-04-27'
p7209
I13
tp7210
a(S'2012-05-04'
p7211
I15
tp7212
asVbloodline 
p7213
(lp7214
(S'2012-07-13'
p7215
I6
tp7216
asVthe next always 
p7217
(lp7218
(S'2011-11-18'
p7219
I2
tp7220
a(S'2011-11-25'
p7221
I3
tp7222
a(S'2011-12-02'
p7223
I8
tp7224
a(S'2011-12-09'
p7225
I12
tp7226
a(S'2011-12-16'
p7227
I12
tp7228
a(S'2011-12-23'
p7229
I14
tp7230
a(S'2011-12-30'
p7231
I15
tp7232
asVfast track 
p7233
(lp7234
(S'2014-08-15'
p7235
I3
tp7236
asVthe job 
p7237
(lp7238
(S'2014-12-05'
p7239
I8
tp7240
asVdon't go 
p7241
(lp7242
(S'2013-04-26'
p7243
I5
tp7244
asVwalking on water 
p7245
(lp7246
(S'2014-05-23'
p7247
I5
tp7248
asVthe casual vacancy 
p7249
(lp7250
(S'2012-10-12'
p7251
I1
tp7252
a(S'2012-10-19'
p7253
I2
tp7254
a(S'2012-10-26'
p7255
I2
tp7256
a(S'2012-11-02'
p7257
I5
tp7258
a(S'2012-11-09'
p7259
I14
tp7260
a(S'2012-11-16'
p7261
I15
tp7262
a(S'2012-12-07'
p7263
I15
tp7264
a(S'2013-01-04'
p7265
I11
tp7266
asVlight of the world 
p7267
(lp7268
(S'2013-08-09'
p7269
I6
tp7270
asVat the water's edge 
p7271
(lp7272
(S'2015-04-17'
p7273
I9
tp7274
a(S'2015-05-01'
p7275
I13
tp7276
asVthe crossing 
p7277
(lp7278
(S'2015-11-20'
p7279
I1
tp7280
a(S'2015-11-27'
p7281
I2
tp7282
a(S'2015-12-04'
p7283
I5
tp7284
a(S'2015-12-11'
p7285
I7
tp7286
a(S'2015-12-18'
p7287
I4
tp7288
a(S'2015-12-25'
p7289
I15
tp7290
asVshattered 
p7291
(lp7292
(S'2014-07-04'
p7293
I8
tp7294
asVconviction 
p7295
(lp7296
(S'2011-06-10'
p7297
I12
tp7298
asVthe handsome man's de luxe caf 
p7299
(lp7300
(S'2014-11-14'
p7301
I10
tp7302
asVdevil's game 
p7303
(lp7304
(S'2014-06-20'
p7305
I12
tp7306
asVshopping for a billionaire 
p7307
(lp7308
(S'2015-04-10'
p7309
I9
tp7310
asVthe survivor 
p7311
(lp7312
(S'2015-10-23'
p7313
I1
tp7314
a(S'2015-10-30'
p7315
I3
tp7316
a(S'2015-11-06'
p7317
I5
tp7318
a(S'2015-11-13'
p7319
I7
tp7320
a(S'2015-11-20'
p7321
I8
tp7322
a(S'2015-11-27'
p7323
I12
tp7324
asVdead or alive 
p7325
(lp7326
(S'2011-02-18'
p7327
I11
tp7328
a(S'2011-02-25'
p7329
I11
tp7330
a(S'2011-03-04'
p7331
I13
tp7332
asVreaper's legacy 
p7333
(lp7334
(S'2014-02-14'
p7335
I10
tp7336
asVorphan #8 
p7337
(lp7338
(S'2015-12-04'
p7339
I13
tp7340
asVthe king 
p7341
(lp7342
(S'2014-04-18'
p7343
I1
tp7344
asVthe house girl 
p7345
(lp7346
(S'2014-02-28'
p7347
I12
tp7348
asVin one person 
p7349
(lp7350
(S'2012-05-25'
p7351
I12
tp7352
asVtelegraph avenue 
p7353
(lp7354
(S'2012-09-28'
p7355
I11
tp7356
asVcockroaches 
p7357
(lp7358
(S'2014-02-28'
p7359
I6
tp7360
asVburn 
p7361
(lp7362
(S'2013-08-23'
p7363
I1
tp7364
a(S'2013-08-30'
p7365
I12
tp7366
a(S'2014-10-17'
p7367
I2
tp7368
a(S'2014-10-24'
p7369
I4
tp7370
a(S'2014-10-31'
p7371
I5
tp7372
a(S'2014-11-07'
p7373
I5
tp7374
a(S'2014-11-14'
p7375
I15
tp7376
asVthe silent wife 
p7377
(lp7378
(S'2013-08-09'
p7379
I11
tp7380
a(S'2013-08-16'
p7381
I15
tp7382
a(S'2013-08-23'
p7383
I10
tp7384
a(S'2013-08-30'
p7385
I10
tp7386
a(S'2013-09-06'
p7387
I6
tp7388
a(S'2013-09-13'
p7389
I14
tp7390
asVreamde 
p7391
(lp7392
(S'2011-10-07'
p7393
I11
tp7394
asVcold betrayal 
p7395
(lp7396
(S'2015-03-27'
p7397
I10
tp7398
asVthe bridge 
p7399
(lp7400
(S'2012-11-09'
p7401
I12
tp7402
asVafter the storm 
p7403
(lp7404
(S'2014-01-24'
p7405
I7
tp7406
asVthe promise 
p7407
(lp7408
(S'2014-07-11'
p7409
I3
tp7410
a(S'2014-07-25'
p7411
I14
tp7412
a(S'2015-11-27'
p7413
I3
tp7414
asVonly us 
p7415
(lp7416
(S'2011-11-18'
p7417
I10
tp7418
asVbeach lane 
p7419
(lp7420
(S'2011-06-17'
p7421
I11
tp7422
asVstolen prey 
p7423
(lp7424
(S'2012-06-01'
p7425
I4
tp7426
a(S'2012-06-08'
p7427
I6
tp7428
a(S'2012-06-15'
p7429
I9
tp7430
a(S'2012-06-22'
p7431
I9
tp7432
a(S'2012-07-06'
p7433
I15
tp7434
asVthe house we grew up in 
p7435
(lp7436
(S'2015-06-12'
p7437
I14
tp7438
asVzoo 
p7439
(lp7440
(S'2012-09-21'
p7441
I4
tp7442
a(S'2012-09-28'
p7443
I9
tp7444
a(S'2012-10-05'
p7445
I12
tp7446
a(S'2012-10-12'
p7447
I11
tp7448
a(S'2015-06-19'
p7449
I10
tp7450
a(S'2015-07-24'
p7451
I15
tp7452
asVthe time keeper 
p7453
(lp7454
(S'2012-09-21'
p7455
I6
tp7456
a(S'2012-09-28'
p7457
I8
tp7458
a(S'2012-10-05'
p7459
I9
tp7460
a(S'2012-10-12'
p7461
I9
tp7462
asVa perfect life 
p7463
(lp7464
(S'2014-08-08'
p7465
I2
tp7466
asVthe thief 
p7467
(lp7468
(S'2012-03-23'
p7469
I4
tp7470
asVleft for dead 
p7471
(lp7472
(S'2012-02-24'
p7473
I14
tp7474
asVthe striker 
p7475
(lp7476
(S'2013-03-22'
p7477
I8
tp7478
asVone summer 
p7479
(lp7480
(S'2011-07-01'
p7481
I4
tp7482
a(S'2011-07-08'
p7483
I9
tp7484
a(S'2011-07-15'
p7485
I9
tp7486
a(S'2011-07-22'
p7487
I7
tp7488
a(S'2011-07-29'
p7489
I13
tp7490
asVin the unlikely event 
p7491
(lp7492
(S'2015-06-19'
p7493
I3
tp7494
a(S'2015-06-26'
p7495
I6
tp7496
a(S'2015-07-03'
p7497
I10
tp7498
a(S'2015-07-10'
p7499
I10
tp7500
asVagainst the tide 
p7501
(lp7502
(S'2015-06-12'
p7503
I15
tp7504
asVmad river 
p7505
(lp7506
(S'2012-10-19'
p7507
I3
tp7508
a(S'2012-10-26'
p7509
I4
tp7510
a(S'2012-11-02'
p7511
I14
tp7512
asVkaleidoscope 
p7513
(lp7514
(S'2014-02-21'
p7515
I10
tp7516
asVthe oracle glass 
p7517
(lp7518
(S'2013-05-24'
p7519
I8
tp7520
asV11th hour 
p7521
(lp7522
(S'2012-05-25'
p7523
I4
tp7524
a(S'2012-06-01'
p7525
I5
tp7526
a(S'2012-06-08'
p7527
I5
tp7528
a(S'2012-06-15'
p7529
I6
tp7530
a(S'2012-06-22'
p7531
I8
tp7532
a(S'2012-06-29'
p7533
I12
tp7534
a(S'2012-07-06'
p7535
I11
tp7536
asVsummerland 
p7537
(lp7538
(S'2012-07-13'
p7539
I7
tp7540
asVafterburn 
p7541
(lp7542
(S'2013-08-30'
p7543
I8
tp7544
asVthe third bullet 
p7545
(lp7546
(S'2013-02-01'
p7547
I12
tp7548
asVdream eyes 
p7549
(lp7550
(S'2013-01-25'
p7551
I14
tp7552
asVthe signature of all things 
p7553
(lp7554
(S'2013-10-18'
p7555
I7
tp7556
a(S'2013-10-25'
p7557
I14
tp7558
asVone day 
p7559
(lp7560
(S'2011-08-19'
p7561
I13
tp7562
a(S'2011-08-26'
p7563
I5
tp7564
a(S'2011-09-02'
p7565
I3
tp7566
a(S'2011-09-09'
p7567
I6
tp7568
a(S'2011-09-16'
p7569
I10
tp7570
asVhotel on the corner of bitter and sweet 
p7571
(lp7572
(S'2011-03-04'
p7573
I15
tp7574
asVsavage nature 
p7575
(lp7576
(S'2011-05-13'
p7577
I8
tp7578
asVdevoted in death 
p7579
(lp7580
(S'2015-10-02'
p7581
I2
tp7582
a(S'2015-10-09'
p7583
I9
tp7584
asVroom 
p7585
(lp7586
(S'2011-02-18'
p7587
I13
tp7588
a(S'2011-02-25'
p7589
I12
tp7590
a(S'2011-03-04'
p7591
I14
tp7592
a(S'2011-06-24'
p7593
I12
tp7594
a(S'2011-07-01'
p7595
I15
tp7596
a(S'2011-07-08'
p7597
I12
tp7598
a(S'2011-07-15'
p7599
I12
tp7600
a(S'2011-07-22'
p7601
I12
tp7602
a(S'2011-07-29'
p7603
I14
tp7604
asVthe columbus affair 
p7605
(lp7606
(S'2012-06-01'
p7607
I7
tp7608
asVpersonal 
p7609
(lp7610
(S'2014-09-19'
p7611
I1
tp7612
a(S'2014-09-26'
p7613
I2
tp7614
a(S'2014-10-03'
p7615
I3
tp7616
a(S'2014-10-10'
p7617
I3
tp7618
a(S'2014-10-17'
p7619
I8
tp7620
a(S'2014-10-24'
p7621
I10
tp7622
a(S'2014-10-31'
p7623
I10
tp7624
a(S'2014-11-07'
p7625
I13
tp7626
a(S'2015-05-22'
p7627
I15
tp7628
asVshadow spell 
p7629
(lp7630
(S'2014-04-11'
p7631
I1
tp7632
a(S'2014-04-18'
p7633
I4
tp7634
a(S'2014-04-25'
p7635
I6
tp7636
a(S'2014-05-02'
p7637
I7
tp7638
asVjane's melody 
p7639
(lp7640
(S'2013-08-16'
p7641
I7
tp7642
a(S'2013-08-23'
p7643
I14
tp7644
asVcross my heart 
p7645
(lp7646
(S'2013-12-13'
p7647
I1
tp7648
a(S'2013-12-20'
p7649
I6
tp7650
a(S'2013-12-27'
p7651
I8
tp7652
a(S'2014-01-03'
p7653
I5
tp7654
a(S'2014-01-10'
p7655
I6
tp7656
a(S'2014-01-17'
p7657
I9
tp7658
a(S'2014-01-31'
p7659
I14
tp7660
asVsilencing eve 
p7661
(lp7662
(S'2013-10-18'
p7663
I4
tp7664
asVthe murderer's daughter 
p7665
(lp7666
(S'2015-09-04'
p7667
I6
tp7668
asVthe lincoln lawyer 
p7669
(lp7670
(S'2011-03-25'
p7671
I10
tp7672
a(S'2011-04-01'
p7673
I3
tp7674
a(S'2011-04-08'
p7675
I3
tp7676
a(S'2011-04-15'
p7677
I4
tp7678
a(S'2011-04-22'
p7679
I3
tp7680
a(S'2011-04-29'
p7681
I3
tp7682
a(S'2011-05-06'
p7683
I6
tp7684
a(S'2011-05-13'
p7685
I6
tp7686
a(S'2011-05-20'
p7687
I9
tp7688
a(S'2011-05-27'
p7689
I8
tp7690
a(S'2011-06-03'
p7691
I11
tp7692
a(S'2011-06-10'
p7693
I13
tp7694
a(S'2011-09-16'
p7695
I7
tp7696
asVmirage 
p7697
(lp7698
(S'2013-11-22'
p7699
I2
tp7700
a(S'2013-11-29'
p7701
I14
tp7702
asVthe assassin 
p7703
(lp7704
(S'2015-03-20'
p7705
I4
tp7706
asVmightier than the sword 
p7707
(lp7708
(S'2015-03-13'
p7709
I5
tp7710
asVmacrieve 
p7711
(lp7712
(S'2013-07-19'
p7713
I10
tp7714
asVbetween sisters 
p7715
(lp7716
(S'2013-11-01'
p7717
I5
tp7718
asVfallen too far 
p7719
(lp7720
(S'2013-03-15'
p7721
I13
tp7722
a(S'2013-03-22'
p7723
I13
tp7724
a(S'2013-03-29'
p7725
I12
tp7726
asVjason 
p7727
(lp7728
(S'2014-12-19'
p7729
I11
tp7730
asVdeception cove 
p7731
(lp7732
(S'2013-09-13'
p7733
I6
tp7734
asVthe golem and the jinni 
p7735
(lp7736
(S'2014-02-07'
p7737
I15
tp7738
asVthe burning room 
p7739
(lp7740
(S'2014-11-21'
p7741
I1
tp7742
a(S'2014-11-28'
p7743
I4
tp7744
a(S'2014-12-05'
p7745
I5
tp7746
a(S'2014-12-12'
p7747
I5
tp7748
a(S'2014-12-19'
p7749
I5
tp7750
a(S'2014-12-26'
p7751
I6
tp7752
a(S'2015-01-02'
p7753
I7
tp7754
a(S'2015-01-09'
p7755
I8
tp7756
a(S'2015-01-16'
p7757
I7
tp7758
a(S'2015-01-23'
p7759
I12
tp7760
asVmotive 
p7761
(lp7762
(S'2015-02-27'
p7763
I4
tp7764
a(S'2015-03-06'
p7765
I12
tp7766
asVnew york to dallas 
p7767
(lp7768
(S'2011-09-30'
p7769
I2
tp7770
a(S'2011-10-07'
p7771
I10
tp7772
a(S'2011-10-14'
p7773
I15
tp7774
asVcross justice 
p7775
(lp7776
(S'2015-12-11'
p7777
I1
tp7778
a(S'2015-12-18'
p7779
I3
tp7780
a(S'2015-12-25'
p7781
I2
tp7782
asVa is for alibi 
p7783
(lp7784
(S'2013-07-26'
p7785
I6
tp7786
asVa good marriage 
p7787
(lp7788
(S'2014-10-17'
p7789
I12
tp7790
asVmiracle cure 
p7791
(lp7792
(S'2011-10-14'
p7793
I12
tp7794
a(S'2011-10-21'
p7795
I12
tp7796
asVveronica mars: mr. kiss and tell 
p7797
(lp7798
(S'2015-02-06'
p7799
I15
tp7800
asVblossom street brides 
p7801
(lp7802
(S'2014-04-11'
p7803
I5
tp7804
asVbones of the lost 
p7805
(lp7806
(S'2013-09-13'
p7807
I5
tp7808
asVhighlander most wanted 
p7809
(lp7810
(S'2013-04-05'
p7811
I19
tp7812
asVthe devil colony 
p7813
(lp7814
(S'2011-07-08'
p7815
I6
tp7816
a(S'2013-02-01'
p7817
I14
tp7818
asVthe boston girl 
p7819
(lp7820
(S'2014-12-26'
p7821
I14
tp7822
asVthe ex games 
p7823
(lp7824
(S'2014-02-07'
p7825
I14
tp7826
a(S'2014-02-28'
p7827
I14
tp7828
a(S'2014-03-07'
p7829
I14
tp7830
asVthankless in death 
p7831
(lp7832
(S'2013-10-04'
p7833
I2
tp7834
a(S'2013-10-11'
p7835
I14
tp7836
asVthe great escape 
p7837
(lp7838
(S'2012-07-27'
p7839
I10
tp7840
asVthis side of the grave 
p7841
(lp7842
(S'2011-03-11'
p7843
I11
tp7844
asVthe host 
p7845
(lp7846
(S'2013-01-11'
p7847
I13
tp7848
a(S'2013-03-29'
p7849
I10
tp7850
a(S'2013-04-05'
p7851
I10
tp7852
a(S'2013-04-12'
p7853
I2
tp7854
a(S'2013-04-19'
p7855
I5
tp7856
a(S'2013-04-26'
p7857
I19
tp7858
asVthe children act 
p7859
(lp7860
(S'2014-09-26'
p7861
I11
tp7862
asVa step of faith 
p7863
(lp7864
(S'2013-05-24'
p7865
I7
tp7866
asVaflame 
p7867
(lp7868
(S'2015-05-08'
p7869
I14
tp7870
asVprivate berlin 
p7871
(lp7872
(S'2013-02-08'
p7873
I2
tp7874
a(S'2013-02-15'
p7875
I4
tp7876
a(S'2013-02-22'
p7877
I6
tp7878
a(S'2013-03-01'
p7879
I10
tp7880
asVthe scam 
p7881
(lp7882
(S'2015-10-02'
p7883
I7
tp7884
asVthe husband list 
p7885
(lp7886
(S'2013-01-25'
p7887
I15
tp7888
asVshadow of night 
p7889
(lp7890
(S'2012-07-27'
p7891
I4
tp7892
a(S'2012-08-03'
p7893
I9
tp7894
a(S'2012-08-10'
p7895
I15
tp7896
asValex cross run 
p7897
(lp7898
(S'2013-03-08'
p7899
I1
tp7900
a(S'2013-03-15'
p7901
I3
tp7902
a(S'2013-03-22'
p7903
I4
tp7904
a(S'2013-03-29'
p7905
I1
tp7906
a(S'2013-04-05'
p7907
I5
tp7908
a(S'2013-04-12'
p7909
I9
tp7910
a(S'2013-04-19'
p7911
I10
tp7912
a(S'2013-04-26'
p7913
I13
tp7914
a(S'2013-05-03'
p7915
I11
tp7916
a(S'2013-05-10'
p7917
I16
tp7918
asVprivate vegas 
p7919
(lp7920
(S'2015-02-13'
p7921
I2
tp7922
a(S'2015-02-20'
p7923
I6
tp7924
a(S'2015-02-27'
p7925
I12
tp7926
a(S'2015-03-06'
p7927
I13
tp7928
asVthe arrangement 7 
p7929
(lp7930
(S'2013-05-31'
p7931
I11
tp7932
asVthe inn at rose harbor 
p7933
(lp7934
(S'2012-08-31'
p7935
I5
tp7936
a(S'2012-09-07'
p7937
I6
tp7938
a(S'2012-09-14'
p7939
I14
tp7940
a(S'2012-09-21'
p7941
I14
tp7942
a(S'2015-05-22'
p7943
I12
tp7944
asVall the single ladies 
p7945
(lp7946
(S'2015-06-26'
p7947
I8
tp7948
asVwild man creek 
p7949
(lp7950
(S'2011-02-18'
p7951
I15
tp7952
asVstealing faces 
p7953
(lp7954
(S'2011-08-26'
p7955
I13
tp7956
a(S'2011-09-02'
p7957
I13
tp7958
asVburied prey 
p7959
(lp7960
(S'2011-05-27'
p7961
I2
tp7962
a(S'2011-06-03'
p7963
I6
tp7964
a(S'2011-06-10'
p7965
I5
tp7966
a(S'2011-06-17'
p7967
I7
tp7968
a(S'2011-06-24'
p7969
I6
tp7970
a(S'2011-07-01'
p7971
I9
tp7972
asVshopaholic to the stars 
p7973
(lp7974
(S'2014-11-07'
p7975
I9
tp7976
asVphantom 
p7977
(lp7978
(S'2012-10-19'
p7979
I14
tp7980
asVhome to seaview key 
p7981
(lp7982
(S'2014-02-14'
p7983
I11
tp7984
asVvictory and honor 
p7985
(lp7986
(S'2011-08-26'
p7987
I12
tp7988
asVcopper beach 
p7989
(lp7990
(S'2012-01-27'
p7991
I12
tp7992
asVair bound 
p7993
(lp7994
(S'2014-06-13'
p7995
I3
tp7996
asVedge of eternity 
p7997
(lp7998
(S'2014-10-03'
p7999
I1
tp8000
a(S'2014-10-10'
p8001
I2
tp8002
a(S'2014-10-17'
p8003
I5
tp8004
a(S'2014-10-24'
p8005
I7
tp8006
a(S'2014-10-31'
p8007
I8
tp8008
a(S'2014-11-07'
p8009
I12
tp8010
asVrush too far 
p8011
(lp8012
(S'2014-05-23'
p8013
I12
tp8014
asVall i ever need is you 
p8015
(lp8016
(S'2015-04-24'
p8017
I12
tp8018
asVtime for love 
p8019
(lp8020
(S'2013-08-09'
p8021
I12
tp8022
asVthe chase 
p8023
(lp8024
(S'2014-03-14'
p8025
I2
tp8026
a(S'2014-03-21'
p8027
I10
tp8028
a(S'2014-03-28'
p8029
I14
tp8030
asVlive to see tomorrow 
p8031
(lp8032
(S'2014-05-16'
p8033
I8
tp8034
asVa deadly web 
p8035
(lp8036
(S'2015-04-24'
p8037
I9
tp8038
asVthe rope 
p8039
(lp8040
(S'2012-02-03'
p8041
I13
tp8042
asVthe girl on the train 
p8043
(lp8044
(S'2015-01-30'
p8045
I1
tp8046
a(S'2015-02-06'
p8047
I1
tp8048
a(S'2015-02-13'
p8049
I1
tp8050
a(S'2015-02-20'
p8051
I1
tp8052
a(S'2015-02-27'
p8053
I1
tp8054
a(S'2015-03-06'
p8055
I1
tp8056
a(S'2015-03-13'
p8057
I1
tp8058
a(S'2015-03-20'
p8059
I1
tp8060
a(S'2015-03-27'
p8061
I1
tp8062
a(S'2015-04-03'
p8063
I1
tp8064
a(S'2015-04-10'
p8065
I1
tp8066
a(S'2015-04-17'
p8067
I1
tp8068
a(S'2015-04-24'
p8069
I1
tp8070
a(S'2015-05-01'
p8071
I2
tp8072
a(S'2015-05-08'
p8073
I2
tp8074
a(S'2015-05-15'
p8075
I2
tp8076
a(S'2015-05-22'
p8077
I2
tp8078
a(S'2015-05-29'
p8079
I1
tp8080
a(S'2015-06-05'
p8081
I1
tp8082
a(S'2015-06-12'
p8083
I2
tp8084
a(S'2015-06-19'
p8085
I2
tp8086
a(S'2015-06-26'
p8087
I1
tp8088
a(S'2015-07-03'
p8089
I2
tp8090
a(S'2015-07-10'
p8091
I2
tp8092
a(S'2015-07-17'
p8093
I3
tp8094
a(S'2015-07-24'
p8095
I2
tp8096
a(S'2015-07-31'
p8097
I3
tp8098
a(S'2015-08-07'
p8099
I2
tp8100
a(S'2015-08-14'
p8101
I3
tp8102
a(S'2015-08-21'
p8103
I3
tp8104
a(S'2015-08-28'
p8105
I2
tp8106
a(S'2015-09-04'
p8107
I2
tp8108
a(S'2015-09-11'
p8109
I2
tp8110
a(S'2015-09-18'
p8111
I3
tp8112
a(S'2015-09-25'
p8113
I4
tp8114
a(S'2015-10-02'
p8115
I8
tp8116
a(S'2015-10-09'
p8117
I5
tp8118
a(S'2015-10-16'
p8119
I9
tp8120
a(S'2015-10-23'
p8121
I9
tp8122
a(S'2015-10-30'
p8123
I9
tp8124
a(S'2015-11-06'
p8125
I11
tp8126
a(S'2015-11-13'
p8127
I15
tp8128
a(S'2015-11-20'
p8129
I14
tp8130
a(S'2015-12-11'
p8131
I12
tp8132
a(S'2015-12-25'
p8133
I10
tp8134
asVdead heat 
p8135
(lp8136
(S'2015-03-20'
p8137
I2
tp8138
asVrobert b. parker's kickback 
p8139
(lp8140
(S'2015-06-05'
p8141
I11
tp8142
asVa perfect storm 
p8143
(lp8144
(S'2012-04-13'
p8145
I15
tp8146
asVyou don\u2019t want to know 
p8147
(lp8148
(S'2012-08-24'
p8149
I14
tp8150
asVfalling into you 
p8151
(lp8152
(S'2013-04-05'
p8153
I8
tp8154
a(S'2013-04-12'
p8155
I6
tp8156
a(S'2013-04-19'
p8157
I8
tp8158
a(S'2013-04-26'
p8159
I9
tp8160
asVa discovery of witches 
p8161
(lp8162
(S'2011-02-25'
p8163
I4
tp8164
a(S'2011-03-04'
p8165
I7
tp8166
a(S'2011-03-11'
p8167
I10
tp8168
a(S'2011-03-18'
p8169
I11
tp8170
a(S'2011-03-25'
p8171
I9
tp8172
a(S'2011-04-01'
p8173
I12
tp8174
a(S'2012-06-29'
p8175
I15
tp8176
asVnotorious nineteen 
p8177
(lp8178
(S'2012-12-07'
p8179
I1
tp8180
a(S'2012-12-14'
p8181
I3
tp8182
a(S'2012-12-21'
p8183
I7
tp8184
a(S'2012-12-28'
p8185
I8
tp8186
a(S'2013-01-04'
p8187
I8
tp8188
a(S'2013-01-11'
p8189
I12
tp8190
asVfly away 
p8191
(lp8192
(S'2013-05-10'
p8193
I3
tp8194
asVhit list 
p8195
(lp8196
(S'2011-06-24'
p8197
I2
tp8198
asVcome rain or come shine 
p8199
(lp8200
(S'2015-10-09'
p8201
I4
tp8202
asVsurvivors 
p8203
(lp8204
(S'2011-10-21'
p8205
I10
tp8206
asVthe collector 
p8207
(lp8208
(S'2014-05-02'
p8209
I1
tp8210
a(S'2014-05-09'
p8211
I3
tp8212
a(S'2014-05-16'
p8213
I5
tp8214
a(S'2014-05-23'
p8215
I9
tp8216
a(S'2014-05-30'
p8217
I10
tp8218
a(S'2014-06-06'
p8219
I14
tp8220
asVthe bone season 
p8221
(lp8222
(S'2013-09-06'
p8223
I9
tp8224
asVbig little lies 
p8225
(lp8226
(S'2014-08-15'
p8227
I1
tp8228
a(S'2014-08-22'
p8229
I2
tp8230
a(S'2014-08-29'
p8231
I3
tp8232
a(S'2014-09-05'
p8233
I2
tp8234
a(S'2014-09-12'
p8235
I5
tp8236
a(S'2014-09-19'
p8237
I9
tp8238
a(S'2014-09-26'
p8239
I8
tp8240
a(S'2014-10-03'
p8241
I7
tp8242
a(S'2014-10-10'
p8243
I8
tp8244
a(S'2014-10-17'
p8245
I10
tp8246
a(S'2014-10-31'
p8247
I14
tp8248
a(S'2014-12-12'
p8249
I8
tp8250
a(S'2014-12-19'
p8251
I9
tp8252
a(S'2014-12-26'
p8253
I10
tp8254
a(S'2015-01-02'
p8255
I9
tp8256
a(S'2015-01-09'
p8257
I6
tp8258
a(S'2015-01-16'
p8259
I3
tp8260
a(S'2015-01-23'
p8261
I4
tp8262
a(S'2015-01-30'
p8263
I5
tp8264
a(S'2015-02-06'
p8265
I6
tp8266
a(S'2015-02-13'
p8267
I9
tp8268
a(S'2015-02-20'
p8269
I10
tp8270
a(S'2015-02-27'
p8271
I13
tp8272
a(S'2015-03-06'
p8273
I11
tp8274
a(S'2015-03-13'
p8275
I15
tp8276
asVshadow\u2019s claim 
p8277
(lp8278
(S'2012-12-14'
p8279
I11
tp8280
asVfolly beach 
p8281
(lp8282
(S'2011-07-01'
p8283
I10
tp8284
asVsnuff 
p8285
(lp8286
(S'2011-10-28'
p8287
I7
tp8288
asVthe melody lingers on 
p8289
(lp8290
(S'2015-07-10'
p8291
I4
tp8292
asVdark predator 
p8293
(lp8294
(S'2011-09-23'
p8295
I8
tp8296
asVedge of darkness 
p8297
(lp8298
(S'2015-08-21'
p8299
I13
tp8300
asVcanyons of night 
p8301
(lp8302
(S'2011-09-16'
p8303
I8
tp8304
asVexplosive eighteen 
p8305
(lp8306
(S'2011-12-09'
p8307
I1
tp8308
a(S'2011-12-16'
p8309
I3
tp8310
a(S'2011-12-23'
p8311
I8
tp8312
a(S'2011-12-30'
p8313
I9
tp8314
a(S'2012-01-06'
p8315
I11
tp8316
a(S'2012-01-13'
p8317
I12
tp8318
asVthe heist 
p8319
(lp8320
(S'2013-07-05'
p8321
I4
tp8322
a(S'2013-07-19'
p8323
I12
tp8324
a(S'2014-08-01'
p8325
I2
tp8326
a(S'2014-08-08'
p8327
I3
tp8328
a(S'2014-08-15'
p8329
I9
tp8330
a(S'2014-08-22'
p8331
I11
tp8332
a(S'2014-08-29'
p8333
I11
tp8334
a(S'2014-09-05'
p8335
I14
tp8336
asVin pursuit of eliza cynster 
p8337
(lp8338
(S'2011-10-14'
p8339
I14
tp8340
asVunseen 
p8341
(lp8342
(S'2013-07-19'
p8343
I6
tp8344
asVnight road 
p8345
(lp8346
(S'2011-04-08'
p8347
I7
tp8348
a(S'2012-02-17'
p8349
I11
tp8350
asVmystery 
p8351
(lp8352
(S'2011-04-15'
p8353
I5
tp8354
a(S'2011-04-22'
p8355
I9
tp8356
asVhope to die 
p8357
(lp8358
(S'2014-12-12'
p8359
I1
tp8360
a(S'2014-12-19'
p8361
I4
tp8362
a(S'2014-12-26'
p8363
I5
tp8364
a(S'2015-01-02'
p8365
I4
tp8366
a(S'2015-01-09'
p8367
I4
tp8368
a(S'2015-01-16'
p8369
I8
tp8370
a(S'2015-01-23'
p8371
I11
tp8372
a(S'2015-01-30'
p8373
I15
tp8374
a(S'2015-02-06'
p8375
I14
tp8376
asVwait for me 
p8377
(lp8378
(S'2013-03-01'
p8379
I5
tp8380
a(S'2013-03-08'
p8381
I4
tp8382
a(S'2013-03-15'
p8383
I11
tp8384
asVa storm of swords 
p8385
(lp8386
(S'2011-07-22'
p8387
I14
tp8388
asVsaturn run 
p8389
(lp8390
(S'2015-10-23'
p8391
I12
tp8392
asVthe edge of always 
p8393
(lp8394
(S'2013-11-22'
p8395
I5
tp8396
asVthe witness 
p8397
(lp8398
(S'2012-05-04'
p8399
I5
tp8400
a(S'2012-05-11'
p8401
I8
tp8402
a(S'2012-05-18'
p8403
I9
tp8404
a(S'2012-05-25'
p8405
I10
tp8406
a(S'2012-06-01'
p8407
I13
tp8408
a(S'2012-06-08'
p8409
I14
tp8410
a(S'2013-07-12'
p8411
I15
tp8412
a(S'2013-07-19'
p8413
I15
tp8414
asVcut and thrust 
p8415
(lp8416
(S'2014-08-01'
p8417
I3
tp8418
asVbeautiful stranger 
p8419
(lp8420
(S'2013-05-03'
p8421
I6
tp8422
asVnight moves 
p8423
(lp8424
(S'2014-08-22'
p8425
I13
tp8426
asVtrue love 
p8427
(lp8428
(S'2015-05-01'
p8429
I12
tp8430
asVclaim me 
p8431
(lp8432
(S'2013-05-10'
p8433
I2
tp8434
asVavenue of mysteries 
p8435
(lp8436
(S'2015-11-20'
p8437
I9
tp8438
asVhazardous duty 
p8439
(lp8440
(S'2014-01-17'
p8441
I7
tp8442
asVmake me 
p8443
(lp8444
(S'2015-09-25'
p8445
I1
tp8446
a(S'2015-10-02'
p8447
I3
tp8448
a(S'2015-10-09'
p8449
I2
tp8450
a(S'2015-10-16'
p8451
I4
tp8452
a(S'2015-10-23'
p8453
I7
tp8454
a(S'2015-10-30'
p8455
I7
tp8456
a(S'2015-11-06'
p8457
I15
tp8458
asVthe witch with no name 
p8459
(lp8460
(S'2014-09-26'
p8461
I4
tp8462
asVmine 
p8463
(lp8464
(S'2013-11-22'
p8465
I7
tp8466
asVlothaire 
p8467
(lp8468
(S'2012-01-27'
p8469
I7
tp8470
asVmagic breaks 
p8471
(lp8472
(S'2014-08-15'
p8473
I7
tp8474
asVmy kind of christmas 
p8475
(lp8476
(S'2012-11-09'
p8477
I3
tp8478
asVdead ice 
p8479
(lp8480
(S'2015-06-26'
p8481
I5
tp8482
asVwhiskey beach 
p8483
(lp8484
(S'2013-05-03'
p8485
I1
tp8486
a(S'2013-05-10'
p8487
I5
tp8488
a(S'2013-05-17'
p8489
I4
tp8490
a(S'2013-05-24'
p8491
I5
tp8492
a(S'2013-05-31'
p8493
I7
tp8494
a(S'2013-06-07'
p8495
I8
tp8496
a(S'2013-06-14'
p8497
I14
tp8498
a(S'2015-07-24'
p8499
I9
tp8500
asVhidden summit 
p8501
(lp8502
(S'2012-01-13'
p8503
I10
tp8504
asVcoming home 
p8505
(lp8506
(S'2012-07-13'
p8507
I9
tp8508
asVnever judge a lady by her cover 
p8509
(lp8510
(S'2014-12-12'
p8511
I15
tp8512
asVsecond son 
p8513
(lp8514
(S'2011-09-02'
p8515
I2
tp8516
a(S'2011-09-09'
p8517
I3
tp8518
a(S'2011-09-16'
p8519
I11
tp8520
asVhappy birthday 
p8521
(lp8522
(S'2011-08-05'
p8523
I6
tp8524
a(S'2011-08-12'
p8525
I15
tp8526
asVreaper's stand 
p8527
(lp8528
(S'2014-10-24'
p8529
I9
tp8530
asVthe scoop 
p8531
(lp8532
(S'2013-09-27'
p8533
I13
tp8534
asVdoctor sleep 
p8535
(lp8536
(S'2013-10-11'
p8537
I1
tp8538
a(S'2013-10-18'
p8539
I2
tp8540
a(S'2013-10-25'
p8541
I3
tp8542
a(S'2013-11-01'
p8543
I4
tp8544
a(S'2013-11-08'
p8545
I6
tp8546
a(S'2013-11-15'
p8547
I12
tp8548
a(S'2013-11-22'
p8549
I13
tp8550
a(S'2013-11-29'
p8551
I10
tp8552
a(S'2013-12-06'
p8553
I11
tp8554
a(S'2013-12-13'
p8555
I6
tp8556
a(S'2013-12-20'
p8557
I9
tp8558
a(S'2013-12-27'
p8559
I10
tp8560
a(S'2014-01-03'
p8561
I6
tp8562
a(S'2014-01-10'
p8563
I2
tp8564
asVcommand authority 
p8565
(lp8566
(S'2013-12-20'
p8567
I2
tp8568
a(S'2013-12-27'
p8569
I3
tp8570
a(S'2014-01-03'
p8571
I4
tp8572
a(S'2014-01-10'
p8573
I3
tp8574
a(S'2014-01-17'
p8575
I5
tp8576
a(S'2014-01-24'
p8577
I11
tp8578
a(S'2014-01-31'
p8579
I9
tp8580
a(S'2014-02-07'
p8581
I12
tp8582
asVthe hot zone 
p8583
(lp8584
(S'2014-09-12'
p8585
I6
tp8586
asVthe rumor 
p8587
(lp8588
(S'2015-07-03'
p8589
I3
tp8590
a(S'2015-07-10'
p8591
I8
tp8592
a(S'2015-07-17'
p8593
I7
tp8594
a(S'2015-07-24'
p8595
I10
tp8596
a(S'2015-07-31'
p8597
I10
tp8598
a(S'2015-08-07'
p8599
I11
tp8600
asVdarker after midnight 
p8601
(lp8602
(S'2012-02-10'
p8603
I8
tp8604
asVall dressed in white 
p8605
(lp8606
(S'2015-12-04'
p8607
I4
tp8608
a(S'2015-12-11'
p8609
I15
tp8610
asVtiger 
p8611
(lp8612
(S'2012-04-27'
p8613
I12
tp8614
asVlonging 
p8615
(lp8616
(S'2011-12-09'
p8617
I6
tp8618
asVkill me if you can 
p8619
(lp8620
(S'2011-09-16'
p8621
I2
tp8622
a(S'2011-09-23'
p8623
I2
tp8624
a(S'2011-09-30'
p8625
I4
tp8626
a(S'2011-10-07'
p8627
I8
tp8628
a(S'2011-10-14'
p8629
I10
tp8630
a(S'2011-10-21'
p8631
I9
tp8632
a(S'2011-10-28'
p8633
I13
tp8634
asVthe bootlegger 
p8635
(lp8636
(S'2014-03-21'
p8637
I3
tp8638
a(S'2014-03-28'
p8639
I15
tp8640
asVendangered 
p8641
(lp8642
(S'2015-03-27'
p8643
I2
tp8644
asVthe redemption of callie and kayden 
p8645
(lp8646
(S'2013-08-16'
p8647
I2
tp8648
asVthe 9th girl 
p8649
(lp8650
(S'2013-07-05'
p8651
I13
tp8652
asVthe fifth assassin 
p8653
(lp8654
(S'2013-02-01'
p8655
I4
tp8656
a(S'2013-02-08'
p8657
I14
tp8658
a(S'2013-02-15'
p8659
I15
tp8660
asVthe rosie project 
p8661
(lp8662
(S'2014-01-24'
p8663
I13
tp8664
a(S'2014-01-31'
p8665
I8
tp8666
a(S'2014-02-07'
p8667
I4
tp8668
a(S'2014-02-14'
p8669
I8
tp8670
a(S'2014-02-28'
p8671
I15
tp8672
asVthe twelve tribes of hattie 
p8673
(lp8674
(S'2012-12-28'
p8675
I15
tp8676
asVshadows of self 
p8677
(lp8678
(S'2015-10-23'
p8679
I5
tp8680
asVson of no one 
p8681
(lp8682
(S'2014-09-19'
p8683
I12
tp8684
asVfates and furies 
p8685
(lp8686
(S'2015-10-02'
p8687
I9
tp8688
asVbeautiful sacrifice 
p8689
(lp8690
(S'2015-06-12'
p8691
I12
tp8692
a(S'2015-06-19'
p8693
I13
tp8694
asVbel-air dead 
p8695
(lp8696
(S'2011-05-13'
p8697
I9
tp8698
asVthe sins of the father 
p8699
(lp8700
(S'2014-02-14'
p8701
I14
tp8702
asVruin: part 1 
p8703
(lp8704
(S'2014-11-21'
p8705
I13
tp8706
asVsee me 
p8707
(lp8708
(S'2015-10-30'
p8709
I1
tp8710
a(S'2015-11-06'
p8711
I3
tp8712
a(S'2015-11-13'
p8713
I3
tp8714
a(S'2015-11-20'
p8715
I6
tp8716
a(S'2015-11-27'
p8717
I7
tp8718
a(S'2015-12-04'
p8719
I9
tp8720
a(S'2015-12-11'
p8721
I4
tp8722
a(S'2015-12-18'
p8723
I12
tp8724
a(S'2015-12-25'
p8725
I7
tp8726
asVpower play 
p8727
(lp8728
(S'2014-03-28'
p8729
I3
tp8730
a(S'2014-04-04'
p8731
I9
tp8732
a(S'2014-07-25'
p8733
I2
tp8734
a(S'2014-08-01'
p8735
I12
tp8736
asVthe forever of ella and micha 
p8737
(lp8738
(S'2013-06-14'
p8739
I5
tp8740
asV1q84 
p8741
(lp8742
(S'2011-11-11'
p8743
I3
tp8744
a(S'2011-11-25'
p8745
I15
tp8746
asVdevil\u2019s gate 
p8747
(lp8748
(S'2011-12-02'
p8749
I5
tp8750
asVidentical 
p8751
(lp8752
(S'2013-11-01'
p8753
I2
tp8754
a(S'2013-11-08'
p8755
I10
tp8756
asVgray mountain 
p8757
(lp8758
(S'2014-11-07'
p8759
I1
tp8760
a(S'2014-11-14'
p8761
I2
tp8762
a(S'2014-11-21'
p8763
I2
tp8764
a(S'2014-11-28'
p8765
I3
tp8766
a(S'2014-12-05'
p8767
I4
tp8768
a(S'2014-12-12'
p8769
I4
tp8770
a(S'2014-12-19'
p8771
I1
tp8772
a(S'2014-12-26'
p8773
I4
tp8774
a(S'2015-01-02'
p8775
I1
tp8776
a(S'2015-01-09'
p8777
I3
tp8778
a(S'2015-01-16'
p8779
I5
tp8780
a(S'2015-01-23'
p8781
I6
tp8782
a(S'2015-01-30'
p8783
I10
tp8784
a(S'2015-02-06'
p8785
I10
tp8786
a(S'2015-02-13'
p8787
I15
tp8788
a(S'2015-02-20'
p8789
I15
tp8790
a(S'2015-09-04'
p8791
I7
tp8792
a(S'2015-09-11'
p8793
I8
tp8794
a(S'2015-09-18'
p8795
I12
tp8796
a(S'2015-09-25'
p8797
I7
tp8798
a(S'2015-10-02'
p8799
I10
tp8800
a(S'2015-10-09'
p8801
I7
tp8802
a(S'2015-10-16'
p8803
I14
tp8804
a(S'2015-10-23'
p8805
I14
tp8806
asVthe kill room 
p8807
(lp8808
(S'2013-06-21'
p8809
I9
tp8810
asValpha 
p8811
(lp8812
(S'2014-05-16'
p8813
I7
tp8814
asVbeautiful ruins 
p8815
(lp8816
(S'2014-04-04'
p8817
I6
tp8818
asVlife of pi 
p8819
(lp8820
(S'2012-11-23'
p8821
I12
tp8822
a(S'2012-11-30'
p8823
I9
tp8824
a(S'2012-12-07'
p8825
I6
tp8826
a(S'2012-12-14'
p8827
I9
tp8828
a(S'2012-12-21'
p8829
I11
tp8830
a(S'2012-12-28'
p8831
I10
tp8832
a(S'2013-01-04'
p8833
I9
tp8834
a(S'2013-01-11'
p8835
I10
tp8836
a(S'2013-02-01'
p8837
I15
tp8838
a(S'2013-03-15'
p8839
I9
tp8840
a(S'2013-03-29'
p8841
I14
tp8842
a(S'2013-04-05'
p8843
I18
tp8844
asVone night stand 
p8845
(lp8846
(S'2015-01-23'
p8847
I5
tp8848
a(S'2015-01-30'
p8849
I14
tp8850
a(S'2015-02-06'
p8851
I13
tp8852
asVin plain sight 
p8853
(lp8854
(S'2015-07-17'
p8855
I15
tp8856
asVstone cold 
p8857
(lp8858
(S'2014-03-28'
p8859
I5
tp8860
asVbackfire 
p8861
(lp8862
(S'2012-07-27'
p8863
I7
tp8864
a(S'2012-08-03'
p8865
I14
tp8866
asVnever go back 
p8867
(lp8868
(S'2013-09-20'
p8869
I1
tp8870
a(S'2013-09-27'
p8871
I2
tp8872
a(S'2013-10-04'
p8873
I5
tp8874
a(S'2013-10-11'
p8875
I7
tp8876
a(S'2013-10-18'
p8877
I6
tp8878
a(S'2013-10-25'
p8879
I10
tp8880
a(S'2014-04-18'
p8881
I15
tp8882
a(S'2014-04-25'
p8883
I15
tp8884
asVthe lady of the rivers 
p8885
(lp8886
(S'2011-11-04'
p8887
I15
tp8888
asVworld war z 
p8889
(lp8890
(S'2013-06-07'
p8891
I14
tp8892
a(S'2013-06-14'
p8893
I7
tp8894
a(S'2013-06-21'
p8895
I6
tp8896
a(S'2013-06-28'
p8897
I9
tp8898
a(S'2013-07-05'
p8899
I6
tp8900
a(S'2013-07-12'
p8901
I7
tp8902
a(S'2013-07-19'
p8903
I8
tp8904
a(S'2013-07-26'
p8905
I14
tp8906
asVhome free 
p8907
(lp8908
(S'2011-04-15'
p8909
I13
tp8910
asVleaving time 
p8911
(lp8912
(S'2014-10-31'
p8913
I2
tp8914
a(S'2014-11-07'
p8915
I3
tp8916
a(S'2014-11-14'
p8917
I7
tp8918
a(S'2014-11-21'
p8919
I5
tp8920
a(S'2014-11-28'
p8921
I10
tp8922
a(S'2014-12-05'
p8923
I12
tp8924
a(S'2014-12-12'
p8925
I13
tp8926
a(S'2014-12-19'
p8927
I14
tp8928
a(S'2014-12-26'
p8929
I12
tp8930
a(S'2015-01-02'
p8931
I10
tp8932
a(S'2015-01-09'
p8933
I12
tp8934
asVthe highway 
p8935
(lp8936
(S'2013-08-16'
p8937
I14
tp8938
asVprecious gifts 
p8939
(lp8940
(S'2015-12-18'
p8941
I11
tp8942
asVthe longest ride 
p8943
(lp8944
(S'2013-10-04'
p8945
I1
tp8946
a(S'2013-10-11'
p8947
I2
tp8948
a(S'2013-10-18'
p8949
I3
tp8950
a(S'2013-10-25'
p8951
I5
tp8952
a(S'2013-11-01'
p8953
I8
tp8954
a(S'2013-11-08'
p8955
I8
tp8956
a(S'2013-11-15'
p8957
I13
tp8958
a(S'2013-11-22'
p8959
I12
tp8960
a(S'2013-11-29'
p8961
I9
tp8962
a(S'2013-12-06'
p8963
I13
tp8964
a(S'2013-12-13'
p8965
I9
tp8966
a(S'2013-12-20'
p8967
I12
tp8968
a(S'2013-12-27'
p8969
I12
tp8970
a(S'2014-01-03'
p8971
I11
tp8972
a(S'2014-01-10'
p8973
I10
tp8974
a(S'2014-01-17'
p8975
I15
tp8976
a(S'2015-01-09'
p8977
I14
tp8978
a(S'2015-03-27'
p8979
I8
tp8980
a(S'2015-04-03'
p8981
I4
tp8982
a(S'2015-04-10'
p8983
I3
tp8984
a(S'2015-04-17'
p8985
I6
tp8986
a(S'2015-04-24'
p8987
I2
tp8988
a(S'2015-05-01'
p8989
I4
tp8990
a(S'2015-05-08'
p8991
I8
tp8992
a(S'2015-05-15'
p8993
I12
tp8994
asVbared to you 
p8995
(lp8996
(S'2012-06-22'
p8997
I15
tp8998
a(S'2012-06-29'
p8999
I5
tp9000
a(S'2012-07-06'
p9001
I6
tp9002
a(S'2012-07-13'
p9003
I5
tp9004
a(S'2012-07-20'
p9005
I5
tp9006
a(S'2012-07-27'
p9007
I8
tp9008
a(S'2012-08-03'
p9009
I6
tp9010
a(S'2012-08-10'
p9011
I8
tp9012
a(S'2012-08-17'
p9013
I6
tp9014
a(S'2012-08-24'
p9015
I5
tp9016
a(S'2012-08-31'
p9017
I6
tp9018
a(S'2012-09-07'
p9019
I5
tp9020
a(S'2012-09-14'
p9021
I6
tp9022
a(S'2012-09-21'
p9023
I7
tp9024
a(S'2012-09-28'
p9025
I10
tp9026
a(S'2012-10-05'
p9027
I10
tp9028
a(S'2012-10-12'
p9029
I8
tp9030
a(S'2012-10-19'
p9031
I10
tp9032
a(S'2012-10-26'
p9033
I9
tp9034
a(S'2012-11-02'
p9035
I13
tp9036
a(S'2013-02-08'
p9037
I15
tp9038
asVprivate down under 
p9039
(lp9040
(S'2014-09-12'
p9041
I3
tp9042
a(S'2014-09-26'
p9043
I15
tp9044
a(S'2014-10-03'
p9045
I15
tp9046
a(S'2014-10-10'
p9047
I15
tp9048
asVthe girl who came home 
p9049
(lp9050
(S'2014-06-06'
p9051
I9
tp9052
a(S'2014-06-13'
p9053
I15
tp9054
asVthe forgotten room 
p9055
(lp9056
(S'2015-05-29'
p9057
I6
tp9058
asVthe tehran initiative 
p9059
(lp9060
(S'2011-11-04'
p9061
I11
tp9062
asVthe english girl 
p9063
(lp9064
(S'2013-08-02'
p9065
I2
tp9066
a(S'2013-08-09'
p9067
I2
tp9068
a(S'2013-08-16'
p9069
I6
tp9070
a(S'2013-08-23'
p9071
I8
tp9072
a(S'2013-08-30'
p9073
I15
tp9074
asVjust like heaven 
p9075
(lp9076
(S'2011-06-17'
p9077
I5
tp9078
asVthe black echo 
p9079
(lp9080
(S'2011-07-15'
p9081
I14
tp9082
a(S'2011-07-22'
p9083
I5
tp9084
a(S'2011-07-29'
p9085
I11
tp9086
a(S'2011-08-05'
p9087
I8
tp9088
a(S'2011-08-12'
p9089
I4
tp9090
asVorphan train 
p9091
(lp9092
(S'2013-10-11'
p9093
I6
tp9094
a(S'2014-01-17'
p9095
I11
tp9096
a(S'2014-02-21'
p9097
I12
tp9098
a(S'2014-02-28'
p9099
I7
tp9100
a(S'2014-03-07'
p9101
I13
tp9102
a(S'2014-03-14'
p9103
I14
tp9104
a(S'2014-03-21'
p9105
I9
tp9106
a(S'2014-03-28'
p9107
I9
tp9108
a(S'2014-04-04'
p9109
I8
tp9110
a(S'2014-04-11'
p9111
I10
tp9112
a(S'2014-04-18'
p9113
I8
tp9114
a(S'2014-04-25'
p9115
I8
tp9116
a(S'2014-05-02'
p9117
I9
tp9118
a(S'2014-05-09'
p9119
I8
tp9120
a(S'2014-05-16'
p9121
I10
tp9122
a(S'2014-05-23'
p9123
I13
tp9124
a(S'2014-05-30'
p9125
I11
tp9126
a(S'2014-06-06'
p9127
I11
tp9128
a(S'2014-06-13'
p9129
I12
tp9130
a(S'2014-06-20'
p9131
I14
tp9132
a(S'2014-06-27'
p9133
I8
tp9134
a(S'2014-07-04'
p9135
I10
tp9136
a(S'2014-07-11'
p9137
I14
tp9138
a(S'2014-07-18'
p9139
I14
tp9140
a(S'2014-07-25'
p9141
I10
tp9142
a(S'2014-08-01'
p9143
I9
tp9144
a(S'2014-08-08'
p9145
I12
tp9146
a(S'2014-08-15'
p9147
I15
tp9148
a(S'2014-08-22'
p9149
I14
tp9150
a(S'2014-08-29'
p9151
I9
tp9152
a(S'2014-09-05'
p9153
I8
tp9154
a(S'2014-09-12'
p9155
I12
tp9156
a(S'2014-09-26'
p9157
I14
tp9158
a(S'2014-10-10'
p9159
I14
tp9160
a(S'2014-10-31'
p9161
I15
tp9162
a(S'2014-11-07'
p9163
I14
tp9164
a(S'2014-12-26'
p9165
I15
tp9166
a(S'2015-01-02'
p9167
I13
tp9168
asVdeep 
p9169
(lp9170
(S'2015-04-17'
p9171
I5
tp9172
asVsight unseen 
p9173
(lp9174
(S'2014-08-01'
p9175
I11
tp9176
asVthe cinderella murder 
p9177
(lp9178
(S'2014-12-05'
p9179
I6
tp9180
asVmaybe someday 
p9181
(lp9182
(S'2014-04-04'
p9183
I4
tp9184
asVwhere azaleas bloom 
p9185
(lp9186
(S'2012-09-14'
p9187
I15
tp9188
asVodd interlude #3 
p9189
(lp9190
(S'2012-07-13'
p9191
I13
tp9192
asVsecond honeymoon 
p9193
(lp9194
(S'2013-07-12'
p9195
I1
tp9196
a(S'2013-07-19'
p9197
I2
tp9198
a(S'2013-07-26'
p9199
I4
tp9200
a(S'2013-08-02'
p9201
I6
tp9202
a(S'2013-08-09'
p9203
I7
tp9204
a(S'2013-08-16'
p9205
I11
tp9206
a(S'2013-08-23'
p9207
I15
tp9208
asVshock wave 
p9209
(lp9210
(S'2011-10-21'
p9211
I2
tp9212
a(S'2011-10-28'
p9213
I6
tp9214
a(S'2011-11-04'
p9215
I8
tp9216
a(S'2011-11-11'
p9217
I13
tp9218
a(S'2011-11-18'
p9219
I15
tp9220
asVand then she fell 
p9221
(lp9222
(S'2013-04-12'
p9223
I16
tp9224
asVdarkness 
p9225
(lp9226
(S'2014-10-10'
p9227
I9
tp9228
asVsomething borrowed 
p9229
(lp9230
(S'2011-04-29'
p9231
I6
tp9232
a(S'2011-05-06'
p9233
I3
tp9234
a(S'2011-05-13'
p9235
I2
tp9236
a(S'2011-05-20'
p9237
I4
tp9238
a(S'2011-05-27'
p9239
I5
tp9240
a(S'2011-06-03'
p9241
I4
tp9242
a(S'2011-06-10'
p9243
I3
tp9244
a(S'2011-06-17'
p9245
I2
tp9246
a(S'2011-06-24'
p9247
I9
tp9248
asVentwined with you 
p9249
(lp9250
(S'2013-06-21'
p9251
I1
tp9252
a(S'2013-06-28'
p9253
I2
tp9254
a(S'2013-07-05'
p9255
I5
tp9256
a(S'2013-07-12'
p9257
I10
tp9258
a(S'2013-07-19'
p9259
I9
tp9260
a(S'2013-07-26'
p9261
I13
tp9262
asVthe cuckoo's calling 
p9263
(lp9264
(S'2013-08-02'
p9265
I1
tp9266
a(S'2013-08-09'
p9267
I1
tp9268
a(S'2013-08-16'
p9269
I1
tp9270
a(S'2013-08-23'
p9271
I3
tp9272
a(S'2013-08-30'
p9273
I1
tp9274
a(S'2013-09-06'
p9275
I1
tp9276
a(S'2013-09-13'
p9277
I4
tp9278
a(S'2013-09-20'
p9279
I6
tp9280
a(S'2013-09-27'
p9281
I4
tp9282
a(S'2013-10-04'
p9283
I11
tp9284
asVsnatched 
p9285
(lp9286
(S'2012-06-08'
p9287
I11
tp9288
asVdamaged 2 
p9289
(lp9290
(S'2013-07-12'
p9291
I2
tp9292
asVbeautiful disaster 
p9293
(lp9294
(S'2012-07-06'
p9295
I13
tp9296
a(S'2012-08-31'
p9297
I13
tp9298
a(S'2012-09-07'
p9299
I11
tp9300
asVthe kingmaker\u2019s daughter 
p9301
(lp9302
(S'2012-08-31'
p9303
I8
tp9304
asVdeadline 
p9305
(lp9306
(S'2013-10-11'
p9307
I3
tp9308
a(S'2014-10-24'
p9309
I2
tp9310
a(S'2014-10-31'
p9311
I4
tp9312
a(S'2014-11-07'
p9313
I6
tp9314
a(S'2014-11-14'
p9315
I11
tp9316
a(S'2014-11-21'
p9317
I12
tp9318
asVdark wolf 
p9319
(lp9320
(S'2014-01-24'
p9321
I3
tp9322
asVthe wise man's fear 
p9323
(lp9324
(S'2011-03-18'
p9325
I2
tp9326
a(S'2011-03-25'
p9327
I11
tp9328
asVsixkill 
p9329
(lp9330
(S'2011-05-20'
p9331
I10
tp9332
asVcop town 
p9333
(lp9334
(S'2014-07-11'
p9335
I11
tp9336
asVportrait of a spy 
p9337
(lp9338
(S'2011-08-05'
p9339
I2
tp9340
a(S'2011-08-12'
p9341
I9
tp9342
a(S'2011-08-19'
p9343
I15
tp9344
asVin your dreams 
p9345
(lp9346
(S'2014-10-17'
p9347
I13
tp9348
asVthe beautiful mystery 
p9349
(lp9350
(S'2012-09-14'
p9351
I8
tp9352
asVthe sixth man 
p9353
(lp9354
(S'2011-05-06'
p9355
I2
tp9356
a(S'2011-05-13'
p9357
I3
tp9358
a(S'2011-05-20'
p9359
I6
tp9360
a(S'2011-05-27'
p9361
I7
tp9362
a(S'2011-06-03'
p9363
I8
tp9364
a(S'2011-06-10'
p9365
I7
tp9366
a(S'2011-06-17'
p9367
I14
tp9368
a(S'2011-06-24'
p9369
I15
tp9370
asVcorrupted 
p9371
(lp9372
(S'2015-11-13'
p9373
I13
tp9374
asVyours for christmas 
p9375
(lp9376
(S'2014-11-14'
p9377
I9
tp9378
asVkiss me 
p9379
(lp9380
(S'2015-07-17'
p9381
I11
tp9382
asVthis is how you lose her 
p9383
(lp9384
(S'2012-09-28'
p9385
I15
tp9386
asVhard to resist 
p9387
(lp9388
(S'2013-03-08'
p9389
I15
tp9390
asVwired 
p9391
(lp9392
(S'2011-11-04'
p9393
I13
tp9394
asVsurrender your love 
p9395
(lp9396
(S'2013-04-05'
p9397
I13
tp9398
a(S'2013-04-12'
p9399
I18
tp9400
a(S'2013-07-05'
p9401
I8
tp9402
a(S'2013-07-12'
p9403
I13
tp9404
asVtwisted perfection 
p9405
(lp9406
(S'2013-05-10'
p9407
I6
tp9408
a(S'2013-05-17'
p9409
I12
tp9410
asVever after 
p9411
(lp9412
(S'2013-02-08'
p9413
I7
tp9414
a(S'2015-07-10'
p9415
I13
tp9416
asVthe white princess 
p9417
(lp9418
(S'2013-08-09'
p9419
I9
tp9420
asVthe summer garden 
p9421
(lp9422
(S'2012-02-17'
p9423
I4
tp9424
asVdeeper than midnight 
p9425
(lp9426
(S'2011-07-15'
p9427
I5
tp9428
asVthe counterfeit agent 
p9429
(lp9430
(S'2014-02-28'
p9431
I11
tp9432
asVearth bound 
p9433
(lp9434
(S'2015-07-24'
p9435
I5
tp9436
asVthe arrangement 13 
p9437
(lp9438
(S'2014-02-21'
p9439
I8
tp9440
asVthe secret of ella and micha 
p9441
(lp9442
(S'2012-11-09'
p9443
I15
tp9444
a(S'2012-11-16'
p9445
I6
tp9446
a(S'2012-11-23'
p9447
I11
tp9448
a(S'2012-11-30'
p9449
I14
tp9450
asVwrath 
p9451
(lp9452
(S'2012-03-23'
p9453
I14
tp9454
asValone 
p9455
(lp9456
(S'2011-02-25'
p9457
I2
tp9458
a(S'2011-03-04'
p9459
I1
tp9460
a(S'2011-03-11'
p9461
I2
tp9462
a(S'2011-03-18'
p9463
I9
tp9464
asVfifty shades of grey 
p9465
(lp9466
(S'2012-03-16'
p9467
I1
tp9468
a(S'2012-03-23'
p9469
I1
tp9470
a(S'2012-03-30'
p9471
I1
tp9472
a(S'2012-04-06'
p9473
I1
tp9474
a(S'2012-04-13'
p9475
I1
tp9476
a(S'2012-04-20'
p9477
I1
tp9478
a(S'2012-04-27'
p9479
I1
tp9480
a(S'2012-05-04'
p9481
I1
tp9482
a(S'2012-05-11'
p9483
I1
tp9484
a(S'2012-05-18'
p9485
I1
tp9486
a(S'2012-05-25'
p9487
I1
tp9488
a(S'2012-06-01'
p9489
I1
tp9490
a(S'2012-06-08'
p9491
I1
tp9492
a(S'2012-06-15'
p9493
I1
tp9494
a(S'2012-06-22'
p9495
I1
tp9496
a(S'2012-06-29'
p9497
I1
tp9498
a(S'2012-07-06'
p9499
I1
tp9500
a(S'2012-07-13'
p9501
I1
tp9502
a(S'2012-07-20'
p9503
I1
tp9504
a(S'2012-07-27'
p9505
I1
tp9506
a(S'2012-08-03'
p9507
I1
tp9508
a(S'2012-08-10'
p9509
I1
tp9510
a(S'2012-08-17'
p9511
I1
tp9512
a(S'2012-08-24'
p9513
I1
tp9514
a(S'2012-08-31'
p9515
I1
tp9516
a(S'2012-09-07'
p9517
I1
tp9518
a(S'2012-09-14'
p9519
I1
tp9520
a(S'2012-09-21'
p9521
I1
tp9522
a(S'2012-09-28'
p9523
I2
tp9524
a(S'2012-10-05'
p9525
I2
tp9526
a(S'2012-10-12'
p9527
I2
tp9528
a(S'2012-10-19'
p9529
I4
tp9530
a(S'2012-10-26'
p9531
I3
tp9532
a(S'2012-11-02'
p9533
I4
tp9534
a(S'2012-11-09'
p9535
I5
tp9536
a(S'2012-11-16'
p9537
I5
tp9538
a(S'2012-11-23'
p9539
I4
tp9540
a(S'2012-11-30'
p9541
I6
tp9542
a(S'2012-12-07'
p9543
I9
tp9544
a(S'2012-12-14'
p9545
I10
tp9546
a(S'2012-12-21'
p9547
I10
tp9548
a(S'2012-12-28'
p9549
I5
tp9550
a(S'2013-01-04'
p9551
I3
tp9552
a(S'2013-01-11'
p9553
I4
tp9554
a(S'2013-01-18'
p9555
I5
tp9556
a(S'2013-01-25'
p9557
I5
tp9558
a(S'2013-02-01'
p9559
I5
tp9560
a(S'2013-02-08'
p9561
I5
tp9562
a(S'2013-02-15'
p9563
I5
tp9564
a(S'2013-02-22'
p9565
I5
tp9566
a(S'2013-03-01'
p9567
I6
tp9568
a(S'2013-03-08'
p9569
I6
tp9570
a(S'2013-03-15'
p9571
I10
tp9572
a(S'2013-03-29'
p9573
I11
tp9574
a(S'2013-04-05'
p9575
I14
tp9576
a(S'2013-04-19'
p9577
I20
tp9578
a(S'2013-05-03'
p9579
I20
tp9580
a(S'2013-05-31'
p9581
I15
tp9582
a(S'2013-09-20'
p9583
I8
tp9584
a(S'2013-09-27'
p9585
I6
tp9586
a(S'2013-10-04'
p9587
I12
tp9588
a(S'2013-10-18'
p9589
I15
tp9590
a(S'2013-11-01'
p9591
I15
tp9592
a(S'2013-11-08'
p9593
I13
tp9594
a(S'2014-01-10'
p9595
I14
tp9596
a(S'2014-08-08'
p9597
I1
tp9598
a(S'2014-08-15'
p9599
I4
tp9600
a(S'2014-08-22'
p9601
I7
tp9602
a(S'2014-08-29'
p9603
I8
tp9604
a(S'2014-09-05'
p9605
I11
tp9606
a(S'2015-01-16'
p9607
I15
tp9608
a(S'2015-01-23'
p9609
I10
tp9610
a(S'2015-01-30'
p9611
I7
tp9612
a(S'2015-02-06'
p9613
I5
tp9614
a(S'2015-02-13'
p9615
I3
tp9616
a(S'2015-02-20'
p9617
I2
tp9618
a(S'2015-02-27'
p9619
I2
tp9620
a(S'2015-03-06'
p9621
I2
tp9622
a(S'2015-03-13'
p9623
I6
tp9624
a(S'2015-03-20'
p9625
I9
tp9626
a(S'2015-03-27'
p9627
I13
tp9628
asVhis secretary 
p9629
(lp9630
(S'2014-11-28'
p9631
I14
tp9632
a(S'2014-12-05'
p9633
I15
tp9634
asVsevered souls 
p9635
(lp9636
(S'2014-08-22'
p9637
I12
tp9638
asVto die for 
p9639
(lp9640
(S'2013-04-19'
p9641
I11
tp9642
asVcrimson shore 
p9643
(lp9644
(S'2015-11-27'
p9645
I4
tp9646
a(S'2015-12-04'
p9647
I15
tp9648
asVprey 
p9649
(lp9650
(S'2011-09-23'
p9651
I12
tp9652
a(S'2015-04-03'
p9653
I8
tp9654
asVstate of fear 
p9655
(lp9656
(S'2015-08-28'
p9657
I10
tp9658
asVnever die alone 
p9659
(lp9660
(S'2015-08-14'
p9661
I13
tp9662
asVfear nothing 
p9663
(lp9664
(S'2014-01-24'
p9665
I4
tp9666
a(S'2014-01-31'
p9667
I11
tp9668
a(S'2014-02-07'
p9669
I11
tp9670
asVlove unrehearsed 
p9671
(lp9672
(S'2012-09-28'
p9673
I13
tp9674
asVdream lake 
p9675
(lp9676
(S'2012-08-24'
p9677
I13
tp9678
asVaftershock 
p9679
(lp9680
(S'2014-03-28'
p9681
I2
tp9682
asVtwelve days 
p9683
(lp9684
(S'2015-02-27'
p9685
I15
tp9686
asVbig sky country 
p9687
(lp9688
(S'2012-06-15'
p9689
I14
tp9690
asVthe omen machine 
p9691
(lp9692
(S'2011-09-02'
p9693
I12
tp9694
asVbeautiful day 
p9695
(lp9696
(S'2013-07-12'
p9697
I6
tp9698
asVthe night eternal 
p9699
(lp9700
(S'2011-11-11'
p9701
I14
tp9702
asVa memory of light 
p9703
(lp9704
(S'2013-01-25'
p9705
I1
tp9706
a(S'2013-02-01'
p9707
I10
tp9708
a(S'2013-04-26'
p9709
I8
tp9710
asVthe scottish prisoner 
p9711
(lp9712
(S'2011-12-16'
p9713
I8
tp9714
asVfifty shades darker 
p9715
(lp9716
(S'2012-03-16'
p9717
I15
tp9718
a(S'2012-03-23'
p9719
I2
tp9720
a(S'2012-03-30'
p9721
I2
tp9722
a(S'2012-04-06'
p9723
I2
tp9724
a(S'2012-04-13'
p9725
I2
tp9726
a(S'2012-04-20'
p9727
I2
tp9728
a(S'2012-04-27'
p9729
I2
tp9730
a(S'2012-05-04'
p9731
I2
tp9732
a(S'2012-05-11'
p9733
I2
tp9734
a(S'2012-05-18'
p9735
I2
tp9736
a(S'2012-05-25'
p9737
I2
tp9738
a(S'2012-06-01'
p9739
I2
tp9740
a(S'2012-06-08'
p9741
I2
tp9742
a(S'2012-06-15'
p9743
I2
tp9744
a(S'2012-06-22'
p9745
I2
tp9746
a(S'2012-06-29'
p9747
I2
tp9748
a(S'2012-07-06'
p9749
I2
tp9750
a(S'2012-07-13'
p9751
I2
tp9752
a(S'2012-07-20'
p9753
I2
tp9754
a(S'2012-07-27'
p9755
I2
tp9756
a(S'2012-08-03'
p9757
I2
tp9758
a(S'2012-08-10'
p9759
I2
tp9760
a(S'2012-08-17'
p9761
I2
tp9762
a(S'2012-08-24'
p9763
I2
tp9764
a(S'2012-08-31'
p9765
I2
tp9766
a(S'2012-09-07'
p9767
I2
tp9768
a(S'2012-09-14'
p9769
I2
tp9770
a(S'2012-09-21'
p9771
I3
tp9772
a(S'2012-09-28'
p9773
I5
tp9774
a(S'2012-10-05'
p9775
I3
tp9776
a(S'2012-10-12'
p9777
I3
tp9778
a(S'2012-10-19'
p9779
I5
tp9780
a(S'2012-10-26'
p9781
I5
tp9782
a(S'2012-11-02'
p9783
I8
tp9784
a(S'2012-11-09'
p9785
I8
tp9786
a(S'2012-11-16'
p9787
I8
tp9788
a(S'2012-11-23'
p9789
I8
tp9790
a(S'2012-11-30'
p9791
I11
tp9792
a(S'2012-12-07'
p9793
I12
tp9794
a(S'2012-12-14'
p9795
I14
tp9796
a(S'2012-12-21'
p9797
I14
tp9798
a(S'2012-12-28'
p9799
I14
tp9800
a(S'2013-01-04'
p9801
I12
tp9802
a(S'2013-01-11'
p9803
I8
tp9804
a(S'2013-01-18'
p9805
I6
tp9806
a(S'2013-01-25'
p9807
I8
tp9808
a(S'2013-02-01'
p9809
I8
tp9810
a(S'2013-02-08'
p9811
I8
tp9812
a(S'2013-02-15'
p9813
I10
tp9814
a(S'2013-02-22'
p9815
I9
tp9816
a(S'2013-03-01'
p9817
I13
tp9818
a(S'2013-03-08'
p9819
I14
tp9820
a(S'2013-03-29'
p9821
I19
tp9822
a(S'2013-09-27'
p9823
I11
tp9824
a(S'2014-08-15'
p9825
I10
tp9826
a(S'2015-02-13'
p9827
I13
tp9828
a(S'2015-02-20'
p9829
I8
tp9830
a(S'2015-02-27'
p9831
I5
tp9832
a(S'2015-03-06'
p9833
I3
tp9834
a(S'2015-03-13'
p9835
I3
tp9836
a(S'2015-03-20'
p9837
I5
tp9838
a(S'2015-03-27'
p9839
I7
tp9840
a(S'2015-04-03'
p9841
I12
tp9842
a(S'2015-05-29'
p9843
I14
tp9844
asVwicked charms 
p9845
(lp9846
(S'2015-07-10'
p9847
I5
tp9848
asVonly a promise 
p9849
(lp9850
(S'2015-06-26'
p9851
I12
tp9852
asVstepbrother dearest 
p9853
(lp9854
(S'2014-10-17'
p9855
I7
tp9856
a(S'2014-10-24'
p9857
I6
tp9858
a(S'2014-10-31'
p9859
I6
tp9860
a(S'2014-11-07'
p9861
I11
tp9862
asVthe chaperone 
p9863
(lp9864
(S'2012-07-27'
p9865
I13
tp9866
asVdance of the bones 
p9867
(lp9868
(S'2015-09-25'
p9869
I13
tp9870
asVthe woman who walked in sunshine 
p9871
(lp9872
(S'2015-11-13'
p9873
I12
tp9874
asVthe pagan lord 
p9875
(lp9876
(S'2014-01-24'
p9877
I15
tp9878
asVlocked on 
p9879
(lp9880
(S'2011-12-30'
p9881
I2
tp9882
a(S'2012-01-06'
p9883
I6
tp9884
a(S'2012-01-13'
p9885
I15
tp9886
a(S'2012-01-20'
p9887
I14
tp9888
asVthe valley of amazement 
p9889
(lp9890
(S'2013-11-22'
p9891
I6
tp9892
a(S'2013-11-29'
p9893
I12
tp9894
a(S'2013-12-06'
p9895
I14
tp9896
asVthe secret soldier 
p9897
(lp9898
(S'2011-02-25'
p9899
I14
tp9900
asVthe marriage season 
p9901
(lp9902
(S'2015-06-12'
p9903
I10
tp9904
asVthe burgess boys 
p9905
(lp9906
(S'2013-04-12'
p9907
I7
tp9908
a(S'2013-04-19'
p9909
I12
tp9910
a(S'2013-04-26'
p9911
I16
tp9912
a(S'2013-05-03'
p9913
I18
tp9914
a(S'2013-05-10'
p9915
I20
tp9916
asVheartsong 
p9917
(lp9918
(S'2013-02-15'
p9919
I11
tp9920
asVrobert b. parker's blind spot 
p9921
(lp9922
(S'2014-09-26'
p9923
I12
tp9924
asVwool omnibus edition 
p9925
(lp9926
(S'2012-10-19'
p9927
I15
tp9928
a(S'2012-10-26'
p9929
I13
tp9930
a(S'2013-06-07'
p9931
I13
tp9932
asVbad monkey 
p9933
(lp9934
(S'2013-06-28'
p9935
I5
tp9936
a(S'2013-07-05'
p9937
I7
tp9938
a(S'2013-07-12'
p9939
I14
tp9940
a(S'2013-07-19'
p9941
I14
tp9942
a(S'2013-07-26'
p9943
I15
tp9944
asVthe kingdom 
p9945
(lp9946
(S'2011-06-24'
p9947
I5
tp9948
asVfrozen heat 
p9949
(lp9950
(S'2012-09-28'
p9951
I7
tp9952
asValert 
p9953
(lp9954
(S'2015-08-21'
p9955
I1
tp9956
a(S'2015-08-28'
p9957
I6
tp9958
a(S'2015-09-04'
p9959
I9
tp9960
a(S'2015-09-11'
p9961
I13
tp9962
asVdark lycan 
p9963
(lp9964
(S'2013-09-20'
p9965
I4
tp9966
asVlethal 
p9967
(lp9968
(S'2011-10-07'
p9969
I2
tp9970
a(S'2011-10-14'
p9971
I5
tp9972
a(S'2011-10-21'
p9973
I6
tp9974
a(S'2011-10-28'
p9975
I8
tp9976
a(S'2011-11-04'
p9977
I12
tp9978
asVthe circle 
p9979
(lp9980
(S'2013-10-25'
p9981
I11
tp9982
asVthe help 
p9983
(lp9984
(S'2011-02-18'
p9985
I7
tp9986
a(S'2011-02-25'
p9987
I9
tp9988
a(S'2011-03-04'
p9989
I10
tp9990
a(S'2011-03-11'
p9991
I15
tp9992
a(S'2011-03-25'
p9993
I14
tp9994
a(S'2011-04-01'
p9995
I14
tp9996
a(S'2011-04-22'
p9997
I5
tp9998
a(S'2011-04-29'
p9999
I5
tp10000
a(S'2011-05-06'
p10001
I4
tp10002
a(S'2011-05-13'
p10003
I4
tp10004
a(S'2011-05-20'
p10005
I5
tp10006
a(S'2011-05-27'
p10007
I6
tp10008
a(S'2011-06-03'
p10009
I2
tp10010
a(S'2011-06-10'
p10011
I2
tp10012
a(S'2011-06-17'
p10013
I1
tp10014
a(S'2011-06-24'
p10015
I1
tp10016
a(S'2011-07-01'
p10017
I1
tp10018
a(S'2011-07-08'
p10019
I2
tp10020
a(S'2011-07-15'
p10021
I2
tp10022
a(S'2011-07-22'
p10023
I1
tp10024
a(S'2011-07-29'
p10025
I2
tp10026
a(S'2011-08-05'
p10027
I1
tp10028
a(S'2011-08-12'
p10029
I1
tp10030
a(S'2011-08-19'
p10031
I1
tp10032
a(S'2011-08-26'
p10033
I1
tp10034
a(S'2011-09-02'
p10035
I1
tp10036
a(S'2011-09-09'
p10037
I1
tp10038
a(S'2011-09-16'
p10039
I1
tp10040
a(S'2011-09-23'
p10041
I1
tp10042
a(S'2011-09-30'
p10043
I1
tp10044
a(S'2011-10-07'
p10045
I1
tp10046
a(S'2011-10-14'
p10047
I2
tp10048
a(S'2011-10-21'
p10049
I1
tp10050
a(S'2011-10-28'
p10051
I2
tp10052
a(S'2011-11-04'
p10053
I4
tp10054
a(S'2011-11-11'
p10055
I4
tp10056
a(S'2011-11-18'
p10057
I6
tp10058
a(S'2011-11-25'
p10059
I6
tp10060
a(S'2011-12-02'
p10061
I9
tp10062
a(S'2011-12-09'
p10063
I7
tp10064
a(S'2011-12-16'
p10065
I6
tp10066
a(S'2011-12-23'
p10067
I2
tp10068
a(S'2011-12-30'
p10069
I3
tp10070
a(S'2012-01-06'
p10071
I2
tp10072
a(S'2012-01-13'
p10073
I1
tp10074
a(S'2012-01-20'
p10075
I3
tp10076
a(S'2012-01-27'
p10077
I2
tp10078
a(S'2012-02-03'
p10079
I3
tp10080
a(S'2012-02-10'
p10081
I3
tp10082
a(S'2012-02-17'
p10083
I5
tp10084
a(S'2012-02-24'
p10085
I4
tp10086
a(S'2012-03-02'
p10087
I5
tp10088
a(S'2012-03-09'
p10089
I8
tp10090
a(S'2012-03-16'
p10091
I10
tp10092
a(S'2012-03-23'
p10093
I10
tp10094
a(S'2012-03-30'
p10095
I10
tp10096
a(S'2012-04-06'
p10097
I12
tp10098
as.