(dp0
Vdivergent 
p1
(lp2
(S'2012-12-16'
p3
I2
tp4
a(S'2012-12-23'
p5
I3
tp6
a(S'2012-12-30'
p7
I3
tp8
a(S'2013-01-06'
p9
I3
tp10
a(S'2013-01-13'
p11
I3
tp12
a(S'2013-01-20'
p13
I4
tp14
a(S'2013-01-27'
p15
I3
tp16
a(S'2013-02-03'
p17
I3
tp18
a(S'2013-02-10'
p19
I3
tp20
a(S'2013-02-17'
p21
I4
tp22
a(S'2013-02-24'
p23
I3
tp24
a(S'2013-03-03'
p25
I3
tp26
a(S'2013-03-10'
p27
I3
tp28
a(S'2013-03-17'
p29
I3
tp30
a(S'2013-03-24'
p31
I4
tp32
a(S'2013-03-31'
p33
I3
tp34
a(S'2013-04-07'
p35
I3
tp36
a(S'2013-04-14'
p37
I3
tp38
a(S'2013-04-21'
p39
I3
tp40
a(S'2013-04-28'
p41
I2
tp42
a(S'2013-05-05'
p43
I2
tp44
a(S'2013-05-12'
p45
I3
tp46
a(S'2013-05-19'
p47
I2
tp48
a(S'2013-05-26'
p49
I3
tp50
a(S'2013-06-02'
p51
I3
tp52
a(S'2013-06-09'
p53
I2
tp54
a(S'2013-06-16'
p55
I2
tp56
a(S'2013-06-23'
p57
I2
tp58
a(S'2013-06-30'
p59
I2
tp60
a(S'2013-07-07'
p61
I2
tp62
a(S'2013-07-14'
p63
I1
tp64
a(S'2013-07-21'
p65
I1
tp66
a(S'2013-07-28'
p67
I1
tp68
a(S'2013-08-04'
p69
I2
tp70
a(S'2013-08-11'
p71
I2
tp72
a(S'2013-08-18'
p73
I2
tp74
a(S'2013-08-25'
p75
I2
tp76
a(S'2013-09-01'
p77
I2
tp78
a(S'2013-09-08'
p79
I2
tp80
a(S'2013-09-15'
p81
I1
tp82
a(S'2013-09-22'
p83
I2
tp84
a(S'2013-09-29'
p85
I2
tp86
a(S'2013-10-06'
p87
I2
tp88
a(S'2013-10-13'
p89
I3
tp90
a(S'2013-10-20'
p91
I2
tp92
a(S'2013-10-27'
p93
I3
tp94
a(S'2013-11-03'
p95
I2
tp96
asVwhat really happened in peru 
p97
(lp98
(S'2013-05-05'
p99
I4
tp100
asVskink \u2014 no surrender 
p101
(lp102
(S'2014-10-12'
p103
I4
tp104
a(S'2014-10-19'
p105
I5
tp106
a(S'2014-10-26'
p107
I6
tp108
a(S'2014-11-02'
p109
I5
tp110
asVhomeland 
p111
(lp112
(S'2013-02-24'
p113
I10
tp114
asVthe moon and more 
p115
(lp116
(S'2013-06-23'
p117
I3
tp118
a(S'2013-06-30'
p119
I6
tp120
a(S'2013-07-07'
p121
I8
tp122
asVthe 5th wave 
p123
(lp124
(S'2013-05-26'
p125
I2
tp126
a(S'2013-06-02'
p127
I2
tp128
a(S'2013-06-09'
p129
I3
tp130
a(S'2013-06-16'
p131
I4
tp132
a(S'2013-06-23'
p133
I7
tp134
a(S'2013-06-30'
p135
I9
tp136
a(S'2013-07-07'
p137
I10
tp138
a(S'2013-07-14'
p139
I8
tp140
a(S'2013-07-21'
p141
I8
tp142
a(S'2015-03-08'
p143
I10
tp144
a(S'2015-03-15'
p145
I10
tp146
a(S'2015-03-22'
p147
I10
tp148
a(S'2015-03-29'
p149
I10
tp150
a(S'2015-04-12'
p151
I8
tp152
asVfinding audrey 
p153
(lp154
(S'2015-06-28'
p155
I5
tp156
asVdark triumph 
p157
(lp158
(S'2013-04-21'
p159
I9
tp160
asVnever fade 
p161
(lp162
(S'2013-11-03'
p163
I10
tp164
asVthe runaway queen 
p165
(lp166
(S'2013-06-09'
p167
I8
tp168
asVinsurgent 
p169
(lp170
(S'2012-12-16'
p171
I4
tp172
a(S'2012-12-23'
p173
I5
tp174
a(S'2012-12-30'
p175
I6
tp176
a(S'2013-01-06'
p177
I5
tp178
a(S'2013-01-13'
p179
I4
tp180
a(S'2013-01-20'
p181
I5
tp182
a(S'2013-01-27'
p183
I4
tp184
a(S'2013-02-03'
p185
I4
tp186
a(S'2013-02-10'
p187
I4
tp188
a(S'2013-02-17'
p189
I5
tp190
a(S'2013-02-24'
p191
I5
tp192
a(S'2013-03-03'
p193
I4
tp194
a(S'2013-03-10'
p195
I5
tp196
a(S'2013-03-17'
p197
I5
tp198
a(S'2013-03-24'
p199
I7
tp200
a(S'2013-03-31'
p201
I5
tp202
a(S'2013-04-07'
p203
I5
tp204
a(S'2013-04-14'
p205
I5
tp206
a(S'2013-04-21'
p207
I4
tp208
a(S'2013-04-28'
p209
I4
tp210
a(S'2013-05-05'
p211
I5
tp212
a(S'2013-05-12'
p213
I5
tp214
a(S'2013-05-19'
p215
I4
tp216
a(S'2013-05-26'
p217
I4
tp218
a(S'2013-06-02'
p219
I4
tp220
a(S'2013-06-09'
p221
I4
tp222
a(S'2013-06-16'
p223
I3
tp224
a(S'2013-06-23'
p225
I5
tp226
a(S'2013-06-30'
p227
I5
tp228
a(S'2013-07-07'
p229
I3
tp230
a(S'2013-07-14'
p231
I3
tp232
a(S'2013-07-21'
p233
I3
tp234
a(S'2013-07-28'
p235
I3
tp236
a(S'2013-08-04'
p237
I3
tp238
a(S'2013-08-11'
p239
I3
tp240
a(S'2013-08-18'
p241
I3
tp242
a(S'2013-08-25'
p243
I3
tp244
a(S'2013-09-01'
p245
I3
tp246
a(S'2013-09-08'
p247
I3
tp248
a(S'2013-09-15'
p249
I3
tp250
a(S'2013-09-22'
p251
I3
tp252
a(S'2013-09-29'
p253
I3
tp254
a(S'2013-10-06'
p255
I3
tp256
a(S'2013-10-13'
p257
I4
tp258
a(S'2013-10-20'
p259
I4
tp260
a(S'2013-10-27'
p261
I5
tp262
a(S'2013-11-03'
p263
I4
tp264
asVcurtsies & conspiracies 
p265
(lp266
(S'2013-11-24'
p267
I5
tp268
asVan abundance of katherines 
p269
(lp270
(S'2013-01-20'
p271
I10
tp272
a(S'2013-04-07'
p273
I8
tp274
a(S'2013-04-14'
p275
I10
tp276
a(S'2013-04-21'
p277
I7
tp278
a(S'2013-04-28'
p279
I9
tp280
a(S'2013-05-05'
p281
I9
tp282
a(S'2013-05-12'
p283
I9
tp284
a(S'2013-06-16'
p285
I10
tp286
a(S'2013-07-14'
p287
I10
tp288
a(S'2013-07-28'
p289
I9
tp290
a(S'2013-08-04'
p291
I10
tp292
a(S'2013-08-11'
p293
I10
tp294
a(S'2013-12-15'
p295
I9
tp296
a(S'2013-12-22'
p297
I10
tp298
a(S'2013-12-29'
p299
I9
tp300
a(S'2014-01-05'
p301
I8
tp302
a(S'2014-01-12'
p303
I6
tp304
a(S'2014-01-19'
p305
I9
tp306
a(S'2014-02-02'
p307
I9
tp308
a(S'2014-02-09'
p309
I8
tp310
a(S'2014-02-16'
p311
I9
tp312
a(S'2014-02-23'
p313
I8
tp314
a(S'2014-03-02'
p315
I8
tp316
a(S'2014-03-09'
p317
I7
tp318
a(S'2014-03-16'
p319
I7
tp320
a(S'2014-03-23'
p321
I9
tp322
a(S'2014-03-30'
p323
I10
tp324
a(S'2014-04-06'
p325
I9
tp326
a(S'2014-04-13'
p327
I9
tp328
a(S'2014-04-20'
p329
I9
tp330
a(S'2014-04-27'
p331
I10
tp332
a(S'2014-05-04'
p333
I7
tp334
a(S'2014-05-11'
p335
I7
tp336
a(S'2014-05-18'
p337
I7
tp338
a(S'2014-05-25'
p339
I6
tp340
a(S'2014-06-01'
p341
I7
tp342
a(S'2014-06-08'
p343
I5
tp344
a(S'2014-06-15'
p345
I6
tp346
a(S'2014-06-22'
p347
I6
tp348
a(S'2014-06-29'
p349
I6
tp350
a(S'2014-07-06'
p351
I6
tp352
a(S'2014-07-13'
p353
I6
tp354
a(S'2014-07-20'
p355
I6
tp356
a(S'2014-07-27'
p357
I6
tp358
a(S'2014-08-03'
p359
I6
tp360
a(S'2014-08-10'
p361
I7
tp362
a(S'2015-01-11'
p363
I7
tp364
a(S'2015-06-28'
p365
I9
tp366
a(S'2015-07-05'
p367
I10
tp368
a(S'2015-07-12'
p369
I8
tp370
a(S'2015-07-19'
p371
I7
tp372
a(S'2015-08-02'
p373
I7
tp374
a(S'2015-08-09'
p375
I5
tp376
a(S'2015-08-16'
p377
I7
tp378
a(S'2015-08-23'
p379
I8
tp380
asVwe were liars 
p381
(lp382
(S'2014-06-01'
p383
I6
tp384
a(S'2014-06-08'
p385
I10
tp386
a(S'2014-06-15'
p387
I7
tp388
a(S'2014-06-22'
p389
I7
tp390
a(S'2014-06-29'
p391
I9
tp392
a(S'2014-07-06'
p393
I9
tp394
a(S'2014-07-13'
p395
I9
tp396
a(S'2014-07-27'
p397
I10
tp398
a(S'2014-08-03'
p399
I10
tp400
a(S'2014-08-10'
p401
I10
tp402
a(S'2014-08-17'
p403
I10
tp404
a(S'2014-08-24'
p405
I9
tp406
a(S'2014-09-07'
p407
I9
tp408
a(S'2014-12-07'
p409
I9
tp410
a(S'2014-12-14'
p411
I6
tp412
a(S'2014-12-21'
p413
I7
tp414
a(S'2014-12-28'
p415
I9
tp416
a(S'2015-01-04'
p417
I8
tp418
a(S'2015-01-11'
p419
I9
tp420
a(S'2015-01-18'
p421
I10
tp422
a(S'2015-01-25'
p423
I9
tp424
a(S'2015-02-01'
p425
I10
tp426
a(S'2015-02-08'
p427
I8
tp428
a(S'2015-02-15'
p429
I6
tp430
a(S'2015-02-22'
p431
I8
tp432
a(S'2015-03-01'
p433
I10
tp434
a(S'2015-07-05'
p435
I7
tp436
a(S'2015-07-12'
p437
I7
tp438
a(S'2015-07-19'
p439
I9
tp440
a(S'2015-08-09'
p441
I10
tp442
asVi hunt killers 
p443
(lp444
(S'2013-03-24'
p445
I3
tp446
asVthe book thief 
p447
(lp448
(S'2012-12-16'
p449
I5
tp450
a(S'2012-12-23'
p451
I7
tp452
a(S'2012-12-30'
p453
I7
tp454
a(S'2013-01-06'
p455
I7
tp456
a(S'2013-01-13'
p457
I8
tp458
a(S'2013-01-20'
p459
I7
tp460
a(S'2013-01-27'
p461
I7
tp462
a(S'2013-02-03'
p463
I6
tp464
a(S'2013-02-10'
p465
I8
tp466
a(S'2013-02-17'
p467
I7
tp468
a(S'2013-02-24'
p469
I8
tp470
a(S'2013-03-03'
p471
I8
tp472
a(S'2013-03-10'
p473
I7
tp474
a(S'2013-03-17'
p475
I7
tp476
a(S'2013-03-24'
p477
I9
tp478
a(S'2013-03-31'
p479
I8
tp480
a(S'2013-04-07'
p481
I9
tp482
a(S'2013-04-14'
p483
I7
tp484
a(S'2013-04-21'
p485
I8
tp486
a(S'2013-04-28'
p487
I8
tp488
a(S'2013-05-05'
p489
I7
tp490
a(S'2013-05-12'
p491
I10
tp492
a(S'2013-05-19'
p493
I10
tp494
a(S'2013-06-02'
p495
I9
tp496
a(S'2013-06-09'
p497
I7
tp498
a(S'2013-06-16'
p499
I7
tp500
a(S'2013-06-23'
p501
I8
tp502
a(S'2013-06-30'
p503
I7
tp504
a(S'2013-07-07'
p505
I5
tp506
a(S'2013-07-14'
p507
I5
tp508
a(S'2013-07-21'
p509
I5
tp510
a(S'2013-07-28'
p511
I4
tp512
a(S'2013-08-04'
p513
I5
tp514
a(S'2013-08-11'
p515
I5
tp516
a(S'2013-08-18'
p517
I4
tp518
a(S'2013-08-25'
p519
I4
tp520
a(S'2013-09-01'
p521
I4
tp522
a(S'2013-09-08'
p523
I4
tp524
a(S'2013-09-15'
p525
I4
tp526
a(S'2013-09-22'
p527
I4
tp528
a(S'2013-09-29'
p529
I4
tp530
a(S'2013-10-06'
p531
I4
tp532
a(S'2013-10-13'
p533
I5
tp534
a(S'2013-10-20'
p535
I3
tp536
a(S'2013-10-27'
p537
I4
tp538
a(S'2013-11-03'
p539
I1
tp540
a(S'2013-11-10'
p541
I1
tp542
a(S'2013-11-17'
p543
I1
tp544
a(S'2013-11-24'
p545
I1
tp546
a(S'2013-12-01'
p547
I1
tp548
a(S'2013-12-08'
p549
I1
tp550
a(S'2013-12-15'
p551
I1
tp552
a(S'2013-12-22'
p553
I1
tp554
a(S'2013-12-29'
p555
I1
tp556
a(S'2014-01-05'
p557
I1
tp558
a(S'2014-01-12'
p559
I1
tp560
a(S'2014-01-19'
p561
I1
tp562
a(S'2014-01-26'
p563
I2
tp564
a(S'2014-02-02'
p565
I1
tp566
a(S'2014-02-09'
p567
I2
tp568
a(S'2014-02-16'
p569
I2
tp570
a(S'2014-02-23'
p571
I2
tp572
a(S'2014-03-02'
p573
I2
tp574
a(S'2014-03-09'
p575
I2
tp576
a(S'2014-03-16'
p577
I2
tp578
a(S'2014-03-23'
p579
I2
tp580
a(S'2014-03-30'
p581
I2
tp582
a(S'2014-04-06'
p583
I2
tp584
a(S'2014-04-13'
p585
I2
tp586
a(S'2014-04-20'
p587
I2
tp588
a(S'2014-04-27'
p589
I2
tp590
a(S'2014-05-04'
p591
I2
tp592
a(S'2014-05-11'
p593
I2
tp594
a(S'2014-05-18'
p595
I2
tp596
a(S'2014-05-25'
p597
I3
tp598
a(S'2014-06-01'
p599
I3
tp600
a(S'2014-06-08'
p601
I3
tp602
a(S'2014-06-15'
p603
I4
tp604
a(S'2014-06-22'
p605
I5
tp606
a(S'2014-06-29'
p607
I5
tp608
a(S'2014-07-06'
p609
I5
tp610
a(S'2014-07-13'
p611
I5
tp612
a(S'2014-07-20'
p613
I5
tp614
a(S'2014-07-27'
p615
I5
tp616
a(S'2014-08-03'
p617
I5
tp618
a(S'2014-08-10'
p619
I6
tp620
a(S'2014-08-17'
p621
I5
tp622
a(S'2014-08-24'
p623
I5
tp624
a(S'2014-08-31'
p625
I5
tp626
a(S'2014-09-07'
p627
I5
tp628
a(S'2014-09-14'
p629
I6
tp630
a(S'2014-09-21'
p631
I6
tp632
a(S'2014-09-28'
p633
I6
tp634
a(S'2014-10-05'
p635
I7
tp636
a(S'2014-10-12'
p637
I8
tp638
a(S'2014-10-19'
p639
I6
tp640
a(S'2014-10-26'
p641
I9
tp642
a(S'2014-11-02'
p643
I6
tp644
a(S'2014-11-09'
p645
I6
tp646
a(S'2014-11-16'
p647
I6
tp648
a(S'2014-11-23'
p649
I6
tp650
a(S'2014-11-30'
p651
I6
tp652
a(S'2014-12-07'
p653
I7
tp654
a(S'2014-12-14'
p655
I8
tp656
a(S'2014-12-21'
p657
I8
tp658
a(S'2014-12-28'
p659
I10
tp660
a(S'2015-01-04'
p661
I9
tp662
a(S'2015-02-08'
p663
I10
tp664
a(S'2015-02-15'
p665
I9
tp666
a(S'2015-02-22'
p667
I9
tp668
a(S'2015-03-01'
p669
I9
tp670
a(S'2015-04-26'
p671
I9
tp672
a(S'2015-05-03'
p673
I8
tp674
a(S'2015-05-10'
p675
I7
tp676
a(S'2015-05-17'
p677
I7
tp678
a(S'2015-05-24'
p679
I9
tp680
a(S'2015-05-31'
p681
I6
tp682
a(S'2015-06-07'
p683
I8
tp684
a(S'2015-06-14'
p685
I8
tp686
a(S'2015-06-21'
p687
I4
tp688
a(S'2015-06-28'
p689
I4
tp690
a(S'2015-07-05'
p691
I4
tp692
a(S'2015-07-12'
p693
I4
tp694
a(S'2015-07-19'
p695
I4
tp696
a(S'2015-07-26'
p697
I4
tp698
a(S'2015-08-02'
p699
I4
tp700
a(S'2015-08-09'
p701
I4
tp702
a(S'2015-08-16'
p703
I4
tp704
a(S'2015-08-23'
p705
I4
tp706
asVprodigy 
p707
(lp708
(S'2013-02-17'
p709
I2
tp710
a(S'2013-02-24'
p711
I6
tp712
a(S'2013-03-03'
p713
I6
tp714
a(S'2013-03-10'
p715
I8
tp716
a(S'2013-03-17'
p717
I9
tp718
a(S'2013-03-24'
p719
I10
tp720
a(S'2013-03-31'
p721
I10
tp722
a(S'2013-04-07'
p723
I10
tp724
a(S'2013-04-14'
p725
I9
tp726
asVoutrage 
p727
(lp728
(S'2015-08-02'
p729
I6
tp730
asVtilt 
p731
(lp732
(S'2013-01-13'
p733
I10
tp734
asVthe raven boys 
p735
(lp736
(S'2012-12-16'
p737
I9
tp738
asVthe impossible knife of memory 
p739
(lp740
(S'2014-02-02'
p741
I10
tp742
asVscarlet 
p743
(lp744
(S'2013-02-24'
p745
I4
tp746
a(S'2013-03-03'
p747
I7
tp748
asVthe duff 
p749
(lp750
(S'2015-03-08'
p751
I2
tp752
a(S'2015-03-15'
p753
I2
tp754
a(S'2015-03-22'
p755
I3
tp756
a(S'2015-03-29'
p757
I5
tp758
a(S'2015-04-05'
p759
I6
tp760
a(S'2015-04-12'
p761
I7
tp762
a(S'2015-04-19'
p763
I9
tp764
asVsaint anything 
p765
(lp766
(S'2015-05-24'
p767
I3
tp768
a(S'2015-05-31'
p769
I2
tp770
a(S'2015-06-07'
p771
I7
tp772
asVwelcome to shadowhunter academy 
p773
(lp774
(S'2015-03-08'
p775
I7
tp776
asVthis star won't go out 
p777
(lp778
(S'2014-02-16'
p779
I7
tp780
a(S'2014-02-23'
p781
I10
tp782
a(S'2014-03-02'
p783
I10
tp784
asVthe rule of thoughts 
p785
(lp786
(S'2014-09-14'
p787
I7
tp788
asVbeing a teen 
p789
(lp790
(S'2014-03-23'
p791
I8
tp792
a(S'2014-03-30'
p793
I7
tp794
asVuncaged 
p795
(lp796
(S'2014-07-27'
p797
I8
tp798
asVwhite hot kiss 
p799
(lp800
(S'2014-03-16'
p801
I10
tp802
asVthe perks of being a wallflower 
p803
(lp804
(S'2012-12-16'
p805
I1
tp806
a(S'2012-12-23'
p807
I1
tp808
a(S'2012-12-30'
p809
I1
tp810
a(S'2013-01-06'
p811
I1
tp812
a(S'2013-01-13'
p813
I1
tp814
a(S'2013-01-20'
p815
I1
tp816
a(S'2013-01-27'
p817
I1
tp818
a(S'2013-02-03'
p819
I1
tp820
a(S'2013-02-10'
p821
I1
tp822
a(S'2013-02-17'
p823
I3
tp824
a(S'2013-02-24'
p825
I2
tp826
a(S'2013-03-03'
p827
I1
tp828
a(S'2013-03-10'
p829
I1
tp830
a(S'2013-03-17'
p831
I1
tp832
a(S'2013-03-24'
p833
I1
tp834
a(S'2013-03-31'
p835
I1
tp836
a(S'2013-04-07'
p837
I1
tp838
a(S'2013-04-14'
p839
I2
tp840
a(S'2013-04-21'
p841
I2
tp842
a(S'2013-04-28'
p843
I3
tp844
a(S'2013-05-05'
p845
I3
tp846
a(S'2013-05-12'
p847
I4
tp848
a(S'2013-05-19'
p849
I3
tp850
a(S'2013-05-26'
p851
I5
tp852
a(S'2013-06-02'
p853
I5
tp854
a(S'2013-06-09'
p855
I5
tp856
a(S'2013-06-16'
p857
I5
tp858
a(S'2013-06-23'
p859
I6
tp860
a(S'2013-06-30'
p861
I4
tp862
a(S'2013-07-07'
p863
I6
tp864
a(S'2013-07-14'
p865
I6
tp866
a(S'2013-07-21'
p867
I6
tp868
a(S'2013-07-28'
p869
I6
tp870
a(S'2013-08-04'
p871
I6
tp872
a(S'2013-08-11'
p873
I6
tp874
a(S'2013-08-18'
p875
I6
tp876
a(S'2013-08-25'
p877
I6
tp878
a(S'2013-09-01'
p879
I7
tp880
a(S'2013-09-08'
p881
I7
tp882
a(S'2013-09-15'
p883
I7
tp884
a(S'2013-09-22'
p885
I6
tp886
a(S'2013-09-29'
p887
I7
tp888
a(S'2013-10-06'
p889
I7
tp890
a(S'2013-10-13'
p891
I8
tp892
a(S'2013-10-20'
p893
I9
tp894
a(S'2013-11-03'
p895
I9
tp896
a(S'2013-11-10'
p897
I8
tp898
a(S'2013-11-17'
p899
I8
tp900
a(S'2013-11-24'
p901
I8
tp902
a(S'2013-12-01'
p903
I5
tp904
a(S'2013-12-08'
p905
I5
tp906
a(S'2013-12-15'
p907
I4
tp908
a(S'2013-12-22'
p909
I4
tp910
a(S'2013-12-29'
p911
I5
tp912
a(S'2014-01-05'
p913
I4
tp914
a(S'2014-01-12'
p915
I5
tp916
a(S'2014-01-19'
p917
I6
tp918
a(S'2014-01-26'
p919
I4
tp920
a(S'2014-02-02'
p921
I6
tp922
a(S'2014-02-09'
p923
I7
tp924
a(S'2014-02-16'
p925
I8
tp926
a(S'2014-02-23'
p927
I7
tp928
a(S'2014-03-02'
p929
I9
tp930
a(S'2014-03-09'
p931
I10
tp932
a(S'2014-03-16'
p933
I9
tp934
a(S'2014-03-23'
p935
I10
tp936
a(S'2014-03-30'
p937
I9
tp938
a(S'2014-04-06'
p939
I8
tp940
a(S'2014-04-13'
p941
I8
tp942
a(S'2014-04-20'
p943
I8
tp944
a(S'2014-05-11'
p945
I8
tp946
asVdodger 
p947
(lp948
(S'2012-12-23'
p949
I8
tp950
a(S'2012-12-30'
p951
I9
tp952
asVthe elite 
p953
(lp954
(S'2013-05-12'
p955
I1
tp956
a(S'2013-05-19'
p957
I6
tp958
a(S'2013-05-26'
p959
I8
tp960
a(S'2013-06-02'
p961
I10
tp962
a(S'2013-06-16'
p963
I9
tp964
a(S'2013-08-18'
p965
I10
tp966
a(S'2013-12-01'
p967
I9
tp968
a(S'2013-12-08'
p969
I9
tp970
asVthe young elites 
p971
(lp972
(S'2014-10-26'
p973
I4
tp974
a(S'2014-11-02'
p975
I7
tp976
a(S'2014-11-09'
p977
I9
tp978
a(S'2014-11-16'
p979
I8
tp980
a(S'2014-11-23'
p981
I7
tp982
asVthe ice dragon 
p983
(lp984
(S'2014-11-09'
p985
I5
tp986
asVcrown of midnight 
p987
(lp988
(S'2013-09-15'
p989
I5
tp990
a(S'2013-09-22'
p991
I9
tp992
asVi was here 
p993
(lp994
(S'2015-02-15'
p995
I7
tp996
a(S'2015-02-22'
p997
I6
tp998
asVsea of shadows 
p999
(lp1000
(S'2014-04-27'
p1001
I8
tp1002
asVsteelheart 
p1003
(lp1004
(S'2013-10-13'
p1005
I1
tp1006
a(S'2013-10-20'
p1007
I7
tp1008
a(S'2013-10-27'
p1009
I7
tp1010
a(S'2013-11-03'
p1011
I7
tp1012
a(S'2013-11-10'
p1013
I9
tp1014
a(S'2013-11-24'
p1015
I9
tp1016
a(S'2013-12-01'
p1017
I8
tp1018
a(S'2013-12-08'
p1019
I7
tp1020
a(S'2013-12-15'
p1021
I6
tp1022
a(S'2013-12-22'
p1023
I7
tp1024
a(S'2013-12-29'
p1025
I8
tp1026
a(S'2014-01-05'
p1027
I9
tp1028
a(S'2014-01-19'
p1029
I4
tp1030
asVif i stay 
p1031
(lp1032
(S'2013-02-10'
p1033
I6
tp1034
a(S'2013-09-08'
p1035
I6
tp1036
a(S'2014-05-04'
p1037
I5
tp1038
a(S'2014-05-11'
p1039
I5
tp1040
a(S'2014-05-18'
p1041
I6
tp1042
a(S'2014-05-25'
p1043
I7
tp1044
a(S'2014-06-01'
p1045
I5
tp1046
a(S'2014-06-08'
p1047
I6
tp1048
a(S'2014-06-15'
p1049
I5
tp1050
a(S'2014-06-22'
p1051
I3
tp1052
a(S'2014-06-29'
p1053
I2
tp1054
a(S'2014-07-06'
p1055
I2
tp1056
a(S'2014-07-13'
p1057
I2
tp1058
a(S'2014-07-20'
p1059
I2
tp1060
a(S'2014-07-27'
p1061
I2
tp1062
a(S'2014-08-03'
p1063
I2
tp1064
a(S'2014-08-10'
p1065
I2
tp1066
a(S'2014-08-17'
p1067
I1
tp1068
a(S'2014-08-24'
p1069
I1
tp1070
a(S'2014-08-31'
p1071
I1
tp1072
a(S'2014-09-07'
p1073
I1
tp1074
a(S'2014-09-14'
p1075
I1
tp1076
a(S'2014-09-21'
p1077
I1
tp1078
a(S'2014-09-28'
p1079
I1
tp1080
a(S'2014-10-05'
p1081
I1
tp1082
a(S'2014-10-12'
p1083
I1
tp1084
a(S'2014-10-19'
p1085
I1
tp1086
a(S'2014-10-26'
p1087
I1
tp1088
a(S'2014-11-02'
p1089
I1
tp1090
a(S'2014-11-09'
p1091
I1
tp1092
a(S'2014-11-16'
p1093
I1
tp1094
a(S'2014-11-23'
p1095
I1
tp1096
a(S'2014-11-30'
p1097
I1
tp1098
a(S'2014-12-07'
p1099
I1
tp1100
a(S'2014-12-14'
p1101
I1
tp1102
a(S'2014-12-21'
p1103
I2
tp1104
a(S'2014-12-28'
p1105
I1
tp1106
a(S'2015-01-04'
p1107
I1
tp1108
a(S'2015-01-11'
p1109
I2
tp1110
a(S'2015-01-18'
p1111
I1
tp1112
a(S'2015-01-25'
p1113
I3
tp1114
a(S'2015-02-01'
p1115
I2
tp1116
a(S'2015-02-08'
p1117
I2
tp1118
a(S'2015-02-15'
p1119
I2
tp1120
a(S'2015-02-22'
p1121
I2
tp1122
a(S'2015-03-01'
p1123
I2
tp1124
a(S'2015-03-08'
p1125
I5
tp1126
a(S'2015-03-15'
p1127
I7
tp1128
a(S'2015-03-22'
p1129
I8
tp1130
a(S'2015-03-29'
p1131
I8
tp1132
a(S'2015-04-05'
p1133
I9
tp1134
a(S'2015-04-12'
p1135
I6
tp1136
a(S'2015-04-19'
p1137
I8
tp1138
a(S'2015-04-26'
p1139
I7
tp1140
a(S'2015-05-03'
p1141
I7
tp1142
a(S'2015-07-26'
p1143
I10
tp1144
asVthe wicked will rise 
p1145
(lp1146
(S'2015-04-19'
p1147
I3
tp1148
a(S'2015-04-26'
p1149
I8
tp1150
asVthe treatment 
p1151
(lp1152
(S'2014-05-18'
p1153
I10
tp1154
asVevery day 
p1155
(lp1156
(S'2012-12-16'
p1157
I10
tp1158
a(S'2015-06-28'
p1159
I8
tp1160
asVthe prince 
p1161
(lp1162
(S'2013-03-24'
p1163
I6
tp1164
asVthrough the ever night 
p1165
(lp1166
(S'2013-01-27'
p1167
I6
tp1168
asVfirefight 
p1169
(lp1170
(S'2015-01-25'
p1171
I1
tp1172
a(S'2015-02-01'
p1173
I6
tp1174
a(S'2015-02-08'
p1175
I6
tp1176
a(S'2015-02-15'
p1177
I8
tp1178
asVgrace gold and glory 
p1179
(lp1180
(S'2012-12-23'
p1181
I4
tp1182
a(S'2012-12-30'
p1183
I4
tp1184
a(S'2013-01-06'
p1185
I6
tp1186
a(S'2013-01-13'
p1187
I6
tp1188
asVbattle magic 
p1189
(lp1190
(S'2013-10-13'
p1191
I7
tp1192
asVthe rithmatist 
p1193
(lp1194
(S'2013-06-02'
p1195
I6
tp1196
asVteardrop 
p1197
(lp1198
(S'2013-11-10'
p1199
I6
tp1200
asVme and earl and the dying girl 
p1201
(lp1202
(S'2015-05-24'
p1203
I8
tp1204
a(S'2015-05-31'
p1205
I9
tp1206
a(S'2015-06-07'
p1207
I4
tp1208
a(S'2015-06-14'
p1209
I4
tp1210
a(S'2015-06-21'
p1211
I3
tp1212
a(S'2015-06-28'
p1213
I2
tp1214
a(S'2015-07-05'
p1215
I2
tp1216
a(S'2015-07-12'
p1217
I2
tp1218
a(S'2015-07-19'
p1219
I3
tp1220
a(S'2015-07-26'
p1221
I3
tp1222
a(S'2015-08-02'
p1223
I3
tp1224
a(S'2015-08-09'
p1225
I3
tp1226
a(S'2015-08-16'
p1227
I3
tp1228
a(S'2015-08-23'
p1229
I3
tp1230
asVshiver 
p1231
(lp1232
(S'2013-01-20'
p1233
I8
tp1234
a(S'2013-01-27'
p1235
I8
tp1236
asVruining you 
p1237
(lp1238
(S'2013-03-31'
p1239
I9
tp1240
asVwhile it lasts 
p1241
(lp1242
(S'2013-05-19'
p1243
I5
tp1244
a(S'2013-05-26'
p1245
I6
tp1246
a(S'2013-06-02'
p1247
I8
tp1248
a(S'2013-06-09'
p1249
I10
tp1250
asVunbroken 
p1251
(lp1252
(S'2014-11-30'
p1253
I7
tp1254
a(S'2014-12-07'
p1255
I6
tp1256
a(S'2014-12-14'
p1257
I10
tp1258
a(S'2014-12-21'
p1259
I4
tp1260
a(S'2014-12-28'
p1261
I7
tp1262
a(S'2015-01-04'
p1263
I6
tp1264
a(S'2015-01-11'
p1265
I8
tp1266
a(S'2015-01-18'
p1267
I8
tp1268
a(S'2015-01-25'
p1269
I8
tp1270
a(S'2015-02-01'
p1271
I9
tp1272
a(S'2015-02-08'
p1273
I9
tp1274
a(S'2015-02-15'
p1275
I10
tp1276
a(S'2015-02-22'
p1277
I7
tp1278
asVlooking for alaska 
p1279
(lp1280
(S'2012-12-16'
p1281
I6
tp1282
a(S'2012-12-23'
p1283
I6
tp1284
a(S'2012-12-30'
p1285
I5
tp1286
a(S'2013-01-06'
p1287
I4
tp1288
a(S'2013-01-13'
p1289
I5
tp1290
a(S'2013-01-20'
p1291
I6
tp1292
a(S'2013-01-27'
p1293
I5
tp1294
a(S'2013-02-03'
p1295
I5
tp1296
a(S'2013-02-10'
p1297
I5
tp1298
a(S'2013-02-17'
p1299
I6
tp1300
a(S'2013-02-24'
p1301
I7
tp1302
a(S'2013-03-03'
p1303
I5
tp1304
a(S'2013-03-10'
p1305
I4
tp1306
a(S'2013-03-17'
p1307
I4
tp1308
a(S'2013-03-24'
p1309
I5
tp1310
a(S'2013-03-31'
p1311
I4
tp1312
a(S'2013-04-07'
p1313
I4
tp1314
a(S'2013-04-14'
p1315
I4
tp1316
a(S'2013-04-21'
p1317
I5
tp1318
a(S'2013-04-28'
p1319
I5
tp1320
a(S'2013-05-05'
p1321
I6
tp1322
a(S'2013-05-12'
p1323
I6
tp1324
a(S'2013-05-19'
p1325
I7
tp1326
a(S'2013-05-26'
p1327
I7
tp1328
a(S'2013-06-02'
p1329
I7
tp1330
a(S'2013-06-09'
p1331
I6
tp1332
a(S'2013-06-16'
p1333
I6
tp1334
a(S'2013-06-23'
p1335
I4
tp1336
a(S'2013-06-30'
p1337
I3
tp1338
a(S'2013-07-07'
p1339
I4
tp1340
a(S'2013-07-14'
p1341
I4
tp1342
a(S'2013-07-21'
p1343
I4
tp1344
a(S'2013-07-28'
p1345
I5
tp1346
a(S'2013-08-04'
p1347
I4
tp1348
a(S'2013-08-11'
p1349
I4
tp1350
a(S'2013-08-18'
p1351
I5
tp1352
a(S'2013-08-25'
p1353
I5
tp1354
a(S'2013-09-01'
p1355
I5
tp1356
a(S'2013-09-08'
p1357
I5
tp1358
a(S'2013-09-15'
p1359
I6
tp1360
a(S'2013-09-22'
p1361
I5
tp1362
a(S'2013-09-29'
p1363
I5
tp1364
a(S'2013-10-06'
p1365
I6
tp1366
a(S'2013-10-13'
p1367
I6
tp1368
a(S'2013-10-20'
p1369
I6
tp1370
a(S'2013-10-27'
p1371
I6
tp1372
a(S'2013-11-03'
p1373
I6
tp1374
a(S'2013-11-10'
p1375
I5
tp1376
a(S'2013-11-17'
p1377
I4
tp1378
a(S'2013-11-24'
p1379
I3
tp1380
a(S'2013-12-01'
p1381
I3
tp1382
a(S'2013-12-08'
p1383
I3
tp1384
a(S'2013-12-15'
p1385
I3
tp1386
a(S'2013-12-22'
p1387
I3
tp1388
a(S'2013-12-29'
p1389
I4
tp1390
a(S'2014-01-05'
p1391
I3
tp1392
a(S'2014-01-12'
p1393
I3
tp1394
a(S'2014-01-19'
p1395
I3
tp1396
a(S'2014-01-26'
p1397
I3
tp1398
a(S'2014-02-02'
p1399
I4
tp1400
a(S'2014-02-09'
p1401
I4
tp1402
a(S'2014-02-16'
p1403
I4
tp1404
a(S'2014-02-23'
p1405
I3
tp1406
a(S'2014-03-02'
p1407
I3
tp1408
a(S'2014-03-09'
p1409
I3
tp1410
a(S'2014-03-16'
p1411
I3
tp1412
a(S'2014-03-23'
p1413
I3
tp1414
a(S'2014-03-30'
p1415
I3
tp1416
a(S'2014-04-06'
p1417
I3
tp1418
a(S'2014-04-13'
p1419
I3
tp1420
a(S'2014-04-20'
p1421
I3
tp1422
a(S'2014-04-27'
p1423
I3
tp1424
a(S'2014-05-04'
p1425
I3
tp1426
a(S'2014-05-11'
p1427
I3
tp1428
a(S'2014-05-18'
p1429
I3
tp1430
a(S'2014-05-25'
p1431
I2
tp1432
a(S'2014-06-01'
p1433
I2
tp1434
a(S'2014-06-08'
p1435
I2
tp1436
a(S'2014-06-15'
p1437
I2
tp1438
a(S'2014-06-22'
p1439
I2
tp1440
a(S'2014-06-29'
p1441
I3
tp1442
a(S'2014-07-06'
p1443
I3
tp1444
a(S'2014-07-13'
p1445
I3
tp1446
a(S'2014-07-20'
p1447
I3
tp1448
a(S'2014-07-27'
p1449
I3
tp1450
a(S'2014-08-03'
p1451
I3
tp1452
a(S'2014-08-10'
p1453
I3
tp1454
a(S'2014-08-17'
p1455
I4
tp1456
a(S'2014-08-24'
p1457
I4
tp1458
a(S'2014-08-31'
p1459
I4
tp1460
a(S'2014-09-07'
p1461
I4
tp1462
a(S'2014-09-14'
p1463
I4
tp1464
a(S'2014-09-21'
p1465
I4
tp1466
a(S'2014-09-28'
p1467
I4
tp1468
a(S'2014-10-05'
p1469
I5
tp1470
a(S'2014-10-12'
p1471
I5
tp1472
a(S'2014-10-19'
p1473
I4
tp1474
a(S'2014-10-26'
p1475
I5
tp1476
a(S'2014-11-02'
p1477
I4
tp1478
a(S'2014-11-09'
p1479
I4
tp1480
a(S'2014-11-16'
p1481
I4
tp1482
a(S'2014-11-23'
p1483
I3
tp1484
a(S'2014-11-30'
p1485
I4
tp1486
a(S'2014-12-07'
p1487
I4
tp1488
a(S'2014-12-14'
p1489
I5
tp1490
a(S'2014-12-21'
p1491
I6
tp1492
a(S'2014-12-28'
p1493
I4
tp1494
a(S'2015-01-04'
p1495
I4
tp1496
a(S'2015-01-11'
p1497
I5
tp1498
a(S'2015-01-18'
p1499
I4
tp1500
a(S'2015-01-25'
p1501
I6
tp1502
a(S'2015-02-01'
p1503
I3
tp1504
a(S'2015-02-08'
p1505
I4
tp1506
a(S'2015-02-15'
p1507
I3
tp1508
a(S'2015-02-22'
p1509
I4
tp1510
a(S'2015-03-01'
p1511
I4
tp1512
a(S'2015-03-08'
p1513
I4
tp1514
a(S'2015-03-15'
p1515
I5
tp1516
a(S'2015-03-22'
p1517
I5
tp1518
a(S'2015-03-29'
p1519
I2
tp1520
a(S'2015-04-05'
p1521
I2
tp1522
a(S'2015-04-12'
p1523
I2
tp1524
a(S'2015-04-19'
p1525
I2
tp1526
a(S'2015-04-26'
p1527
I2
tp1528
a(S'2015-05-03'
p1529
I2
tp1530
a(S'2015-05-10'
p1531
I2
tp1532
a(S'2015-05-17'
p1533
I3
tp1534
a(S'2015-05-24'
p1535
I4
tp1536
a(S'2015-05-31'
p1537
I3
tp1538
a(S'2015-06-07'
p1539
I2
tp1540
a(S'2015-06-14'
p1541
I3
tp1542
a(S'2015-06-21'
p1543
I2
tp1544
a(S'2015-06-28'
p1545
I3
tp1546
a(S'2015-07-05'
p1547
I3
tp1548
a(S'2015-07-12'
p1549
I3
tp1550
a(S'2015-07-19'
p1551
I2
tp1552
a(S'2015-07-26'
p1553
I2
tp1554
a(S'2015-08-02'
p1555
I2
tp1556
a(S'2015-08-09'
p1557
I2
tp1558
a(S'2015-08-16'
p1559
I2
tp1560
a(S'2015-08-23'
p1561
I2
tp1562
asVlet it snow 
p1563
(lp1564
(S'2014-11-30'
p1565
I8
tp1566
a(S'2014-12-07'
p1567
I8
tp1568
a(S'2014-12-21'
p1569
I9
tp1570
asVthe madness underneath 
p1571
(lp1572
(S'2013-03-17'
p1573
I6
tp1574
asVa court of thorns and roses 
p1575
(lp1576
(S'2015-05-24'
p1577
I2
tp1578
a(S'2015-05-31'
p1579
I4
tp1580
a(S'2015-06-07'
p1581
I9
tp1582
a(S'2015-06-14'
p1583
I9
tp1584
a(S'2015-06-21'
p1585
I10
tp1586
asVthe dream thieves 
p1587
(lp1588
(S'2013-10-06'
p1589
I5
tp1590
asVthe eye of minds 
p1591
(lp1592
(S'2013-10-27'
p1593
I8
tp1594
asVfangirl 
p1595
(lp1596
(S'2013-09-29'
p1597
I8
tp1598
a(S'2013-10-06'
p1599
I8
tp1600
a(S'2013-11-17'
p1601
I5
tp1602
asVthe fault in our stars 
p1603
(lp1604
(S'2012-12-16'
p1605
I3
tp1606
a(S'2012-12-23'
p1607
I2
tp1608
a(S'2012-12-30'
p1609
I2
tp1610
a(S'2013-01-06'
p1611
I2
tp1612
a(S'2013-01-13'
p1613
I2
tp1614
a(S'2013-01-20'
p1615
I2
tp1616
a(S'2013-01-27'
p1617
I2
tp1618
a(S'2013-02-03'
p1619
I2
tp1620
a(S'2013-02-10'
p1621
I2
tp1622
a(S'2013-02-17'
p1623
I1
tp1624
a(S'2013-02-24'
p1625
I1
tp1626
a(S'2013-03-03'
p1627
I2
tp1628
a(S'2013-03-10'
p1629
I2
tp1630
a(S'2013-03-17'
p1631
I2
tp1632
a(S'2013-03-24'
p1633
I2
tp1634
a(S'2013-03-31'
p1635
I2
tp1636
a(S'2013-04-07'
p1637
I2
tp1638
a(S'2013-04-14'
p1639
I1
tp1640
a(S'2013-04-21'
p1641
I1
tp1642
a(S'2013-04-28'
p1643
I1
tp1644
a(S'2013-05-05'
p1645
I1
tp1646
a(S'2013-05-12'
p1647
I2
tp1648
a(S'2013-05-19'
p1649
I1
tp1650
a(S'2013-05-26'
p1651
I1
tp1652
a(S'2013-06-02'
p1653
I1
tp1654
a(S'2013-06-09'
p1655
I1
tp1656
a(S'2013-06-16'
p1657
I1
tp1658
a(S'2013-06-23'
p1659
I1
tp1660
a(S'2013-06-30'
p1661
I1
tp1662
a(S'2013-07-07'
p1663
I1
tp1664
a(S'2013-07-14'
p1665
I2
tp1666
a(S'2013-07-21'
p1667
I2
tp1668
a(S'2013-07-28'
p1669
I2
tp1670
a(S'2013-08-04'
p1671
I1
tp1672
a(S'2013-08-11'
p1673
I1
tp1674
a(S'2013-08-18'
p1675
I1
tp1676
a(S'2013-08-25'
p1677
I1
tp1678
a(S'2013-09-01'
p1679
I1
tp1680
a(S'2013-09-08'
p1681
I1
tp1682
a(S'2013-09-15'
p1683
I2
tp1684
a(S'2013-09-22'
p1685
I1
tp1686
a(S'2013-09-29'
p1687
I1
tp1688
a(S'2013-10-06'
p1689
I1
tp1690
a(S'2013-10-13'
p1691
I2
tp1692
a(S'2013-10-20'
p1693
I1
tp1694
a(S'2013-10-27'
p1695
I2
tp1696
a(S'2013-11-03'
p1697
I3
tp1698
a(S'2013-11-10'
p1699
I2
tp1700
a(S'2013-11-17'
p1701
I2
tp1702
a(S'2013-11-24'
p1703
I2
tp1704
a(S'2013-12-01'
p1705
I2
tp1706
a(S'2013-12-08'
p1707
I2
tp1708
a(S'2013-12-15'
p1709
I2
tp1710
a(S'2013-12-22'
p1711
I2
tp1712
a(S'2013-12-29'
p1713
I2
tp1714
a(S'2014-01-05'
p1715
I2
tp1716
a(S'2014-01-12'
p1717
I2
tp1718
a(S'2014-01-19'
p1719
I2
tp1720
a(S'2014-01-26'
p1721
I1
tp1722
a(S'2014-02-02'
p1723
I2
tp1724
a(S'2014-02-09'
p1725
I1
tp1726
a(S'2014-02-16'
p1727
I1
tp1728
a(S'2014-02-23'
p1729
I1
tp1730
a(S'2014-03-02'
p1731
I1
tp1732
a(S'2014-03-09'
p1733
I1
tp1734
a(S'2014-03-16'
p1735
I1
tp1736
a(S'2014-03-23'
p1737
I1
tp1738
a(S'2014-03-30'
p1739
I1
tp1740
a(S'2014-04-06'
p1741
I1
tp1742
a(S'2014-04-13'
p1743
I1
tp1744
a(S'2014-04-20'
p1745
I1
tp1746
a(S'2014-04-27'
p1747
I1
tp1748
a(S'2014-05-04'
p1749
I1
tp1750
a(S'2014-05-11'
p1751
I1
tp1752
a(S'2014-05-18'
p1753
I1
tp1754
a(S'2014-05-25'
p1755
I1
tp1756
a(S'2014-06-01'
p1757
I1
tp1758
a(S'2014-06-08'
p1759
I1
tp1760
a(S'2014-06-15'
p1761
I1
tp1762
a(S'2014-06-22'
p1763
I1
tp1764
a(S'2014-06-29'
p1765
I1
tp1766
a(S'2014-07-06'
p1767
I1
tp1768
a(S'2014-07-13'
p1769
I1
tp1770
a(S'2014-07-20'
p1771
I1
tp1772
a(S'2014-07-27'
p1773
I1
tp1774
a(S'2014-08-03'
p1775
I1
tp1776
a(S'2014-08-10'
p1777
I1
tp1778
a(S'2014-08-17'
p1779
I2
tp1780
a(S'2014-08-24'
p1781
I2
tp1782
a(S'2014-08-31'
p1783
I2
tp1784
a(S'2014-09-07'
p1785
I2
tp1786
a(S'2014-09-14'
p1787
I3
tp1788
a(S'2014-09-21'
p1789
I3
tp1790
a(S'2014-09-28'
p1791
I2
tp1792
a(S'2014-10-05'
p1793
I2
tp1794
a(S'2014-10-12'
p1795
I2
tp1796
a(S'2014-10-19'
p1797
I2
tp1798
a(S'2014-10-26'
p1799
I2
tp1800
a(S'2014-11-02'
p1801
I2
tp1802
a(S'2014-11-09'
p1803
I2
tp1804
a(S'2014-11-16'
p1805
I2
tp1806
a(S'2014-11-23'
p1807
I2
tp1808
a(S'2014-11-30'
p1809
I2
tp1810
a(S'2014-12-07'
p1811
I2
tp1812
a(S'2014-12-14'
p1813
I2
tp1814
a(S'2014-12-21'
p1815
I1
tp1816
a(S'2014-12-28'
p1817
I2
tp1818
a(S'2015-01-04'
p1819
I2
tp1820
a(S'2015-01-11'
p1821
I1
tp1822
a(S'2015-01-18'
p1823
I3
tp1824
a(S'2015-01-25'
p1825
I2
tp1826
a(S'2015-02-01'
p1827
I1
tp1828
a(S'2015-02-08'
p1829
I1
tp1830
a(S'2015-02-15'
p1831
I1
tp1832
a(S'2015-02-22'
p1833
I1
tp1834
a(S'2015-03-01'
p1835
I5
tp1836
a(S'2015-03-08'
p1837
I1
tp1838
a(S'2015-03-15'
p1839
I1
tp1840
a(S'2015-03-22'
p1841
I4
tp1842
a(S'2015-03-29'
p1843
I4
tp1844
a(S'2015-04-05'
p1845
I4
tp1846
a(S'2015-04-12'
p1847
I3
tp1848
a(S'2015-04-19'
p1849
I5
tp1850
a(S'2015-04-26'
p1851
I3
tp1852
a(S'2015-05-03'
p1853
I3
tp1854
a(S'2015-05-10'
p1855
I3
tp1856
a(S'2015-05-17'
p1857
I4
tp1858
a(S'2015-05-24'
p1859
I5
tp1860
a(S'2015-05-31'
p1861
I8
tp1862
a(S'2015-06-07'
p1863
I6
tp1864
a(S'2015-06-14'
p1865
I6
tp1866
a(S'2015-06-21'
p1867
I6
tp1868
a(S'2015-06-28'
p1869
I7
tp1870
a(S'2015-07-05'
p1871
I6
tp1872
a(S'2015-07-12'
p1873
I6
tp1874
a(S'2015-07-19'
p1875
I8
tp1876
a(S'2015-07-26'
p1877
I8
tp1878
a(S'2015-08-02'
p1879
I9
tp1880
a(S'2015-08-09'
p1881
I7
tp1882
a(S'2015-08-16'
p1883
I6
tp1884
a(S'2015-08-23'
p1885
I6
tp1886
asVthirteen reasons why 
p1887
(lp1888
(S'2012-12-16'
p1889
I7
tp1890
a(S'2013-01-20'
p1891
I9
tp1892
a(S'2013-02-03'
p1893
I8
tp1894
a(S'2013-02-10'
p1895
I7
tp1896
a(S'2013-02-17'
p1897
I8
tp1898
a(S'2013-03-03'
p1899
I9
tp1900
a(S'2013-03-10'
p1901
I9
tp1902
a(S'2013-03-17'
p1903
I8
tp1904
a(S'2013-04-07'
p1905
I7
tp1906
a(S'2013-04-14'
p1907
I8
tp1908
a(S'2013-04-28'
p1909
I10
tp1910
a(S'2013-05-12'
p1911
I8
tp1912
a(S'2013-05-26'
p1913
I10
tp1914
a(S'2013-07-21'
p1915
I10
tp1916
a(S'2013-07-28'
p1917
I10
tp1918
a(S'2013-08-04'
p1919
I8
tp1920
a(S'2013-08-11'
p1921
I9
tp1922
a(S'2013-08-18'
p1923
I9
tp1924
a(S'2013-08-25'
p1925
I10
tp1926
a(S'2013-09-01'
p1927
I10
tp1928
a(S'2013-09-08'
p1929
I10
tp1930
a(S'2013-09-22'
p1931
I10
tp1932
a(S'2013-09-29'
p1933
I9
tp1934
a(S'2013-11-17'
p1935
I10
tp1936
a(S'2013-11-24'
p1937
I10
tp1938
a(S'2013-12-08'
p1939
I10
tp1940
a(S'2013-12-29'
p1941
I10
tp1942
a(S'2014-01-05'
p1943
I10
tp1944
a(S'2014-01-12'
p1945
I9
tp1946
a(S'2014-01-19'
p1947
I10
tp1948
a(S'2014-01-26'
p1949
I10
tp1950
a(S'2014-02-23'
p1951
I9
tp1952
a(S'2014-03-09'
p1953
I9
tp1954
a(S'2014-03-30'
p1955
I8
tp1956
a(S'2014-04-06'
p1957
I7
tp1958
a(S'2014-04-13'
p1959
I6
tp1960
a(S'2014-04-20'
p1961
I10
tp1962
a(S'2014-04-27'
p1963
I6
tp1964
a(S'2014-05-04'
p1965
I9
tp1966
a(S'2014-05-18'
p1967
I8
tp1968
a(S'2014-05-25'
p1969
I8
tp1970
a(S'2014-06-01'
p1971
I9
tp1972
a(S'2014-06-15'
p1973
I9
tp1974
a(S'2014-06-22'
p1975
I9
tp1976
a(S'2014-07-20'
p1977
I10
tp1978
a(S'2014-08-24'
p1979
I10
tp1980
a(S'2014-08-31'
p1981
I9
tp1982
a(S'2014-09-07'
p1983
I8
tp1984
a(S'2014-09-14'
p1985
I10
tp1986
a(S'2014-09-21'
p1987
I9
tp1988
a(S'2014-09-28'
p1989
I10
tp1990
a(S'2014-10-19'
p1991
I9
tp1992
a(S'2014-11-09'
p1993
I8
tp1994
a(S'2014-11-16'
p1995
I9
tp1996
a(S'2014-11-23'
p1997
I9
tp1998
a(S'2014-11-30'
p1999
I9
tp2000
a(S'2015-03-01'
p2001
I8
tp2002
a(S'2015-05-10'
p2003
I9
tp2004
a(S'2015-07-19'
p2005
I6
tp2006
a(S'2015-08-16'
p2007
I10
tp2008
a(S'2015-08-23'
p2009
I10
tp2010
asVthe lost herondale 
p2011
(lp2012
(S'2015-04-05'
p2013
I3
tp2014
asVshadow scale 
p2015
(lp2016
(S'2015-03-29'
p2017
I9
tp2018
asVpanic 
p2019
(lp2020
(S'2014-03-23'
p2021
I7
tp2022
asVred queen 
p2023
(lp2024
(S'2015-03-01'
p2025
I1
tp2026
a(S'2015-03-08'
p2027
I6
tp2028
a(S'2015-03-15'
p2029
I6
tp2030
a(S'2015-03-22'
p2031
I7
tp2032
a(S'2015-03-29'
p2033
I7
tp2034
a(S'2015-04-05'
p2035
I8
tp2036
a(S'2015-04-12'
p2037
I5
tp2038
a(S'2015-04-19'
p2039
I6
tp2040
a(S'2015-04-26'
p2041
I4
tp2042
a(S'2015-05-03'
p2043
I6
tp2044
a(S'2015-05-10'
p2045
I6
tp2046
a(S'2015-05-17'
p2047
I9
tp2048
a(S'2015-06-14'
p2049
I10
tp2050
asVi'll give you the sun 
p2051
(lp2052
(S'2014-10-05'
p2053
I8
tp2054
asVthe selection 
p2055
(lp2056
(S'2013-04-28'
p2057
I6
tp2058
a(S'2014-02-09'
p2059
I9
tp2060
asVconfessions of a murder suspect 
p2061
(lp2062
(S'2013-01-13'
p2063
I9
tp2064
a(S'2013-02-03'
p2065
I10
tp2066
a(S'2013-02-10'
p2067
I10
tp2068
asVlauren conrad beauty 
p2069
(lp2070
(S'2012-12-23'
p2071
I10
tp2072
a(S'2012-12-30'
p2073
I8
tp2074
asVan ember in the ashes 
p2075
(lp2076
(S'2015-05-17'
p2077
I2
tp2078
a(S'2015-05-24'
p2079
I6
tp2080
a(S'2015-05-31'
p2081
I5
tp2082
a(S'2015-06-07'
p2083
I3
tp2084
a(S'2015-06-14'
p2085
I7
tp2086
a(S'2015-06-21'
p2087
I7
tp2088
asVetiquette and espionage 
p2089
(lp2090
(S'2013-02-24'
p2091
I9
tp2092
asVisla and the happily ever after 
p2093
(lp2094
(S'2014-08-31'
p2095
I8
tp2096
asVlegend 
p2097
(lp2098
(S'2013-01-06'
p2099
I8
tp2100
a(S'2013-02-17'
p2101
I10
tp2102
a(S'2013-03-03'
p2103
I10
tp2104
a(S'2013-03-10'
p2105
I10
tp2106
a(S'2013-03-17'
p2107
I10
tp2108
a(S'2013-04-21'
p2109
I10
tp2110
a(S'2013-05-05'
p2111
I10
tp2112
a(S'2013-05-19'
p2113
I8
tp2114
a(S'2013-11-10'
p2115
I4
tp2116
asVoff the page 
p2117
(lp2118
(S'2015-06-07'
p2119
I10
tp2120
asVconfessions the private school murders 
p2121
(lp2122
(S'2013-10-27'
p2123
I1
tp2124
a(S'2013-11-03'
p2125
I5
tp2126
a(S'2013-11-10'
p2127
I3
tp2128
a(S'2013-11-17'
p2129
I3
tp2130
a(S'2013-11-24'
p2131
I4
tp2132
a(S'2013-12-01'
p2133
I4
tp2134
a(S'2013-12-08'
p2135
I4
tp2136
a(S'2013-12-15'
p2137
I7
tp2138
a(S'2013-12-22'
p2139
I9
tp2140
a(S'2014-01-12'
p2141
I10
tp2142
asVunbreakable 
p2143
(lp2144
(S'2013-10-20'
p2145
I10
tp2146
asVendless knight 
p2147
(lp2148
(S'2013-10-20'
p2149
I5
tp2150
asVcode name verity 
p2151
(lp2152
(S'2013-01-06'
p2153
I10
tp2154
asVgirl online 
p2155
(lp2156
(S'2014-12-14'
p2157
I9
tp2158
a(S'2015-01-18'
p2159
I7
tp2160
asVall the bright places 
p2161
(lp2162
(S'2015-07-26'
p2163
I9
tp2164
a(S'2015-08-02'
p2165
I5
tp2166
asVthe infinite sea 
p2167
(lp2168
(S'2014-10-05'
p2169
I4
tp2170
a(S'2014-10-12'
p2171
I7
tp2172
a(S'2014-10-19'
p2173
I8
tp2174
asVmiss peregrine's home for peculiar children 
p2175
(lp2176
(S'2012-12-16'
p2177
I8
tp2178
a(S'2013-01-13'
p2179
I7
tp2180
a(S'2013-01-20'
p2181
I3
tp2182
a(S'2013-01-27'
p2183
I9
tp2184
a(S'2013-02-03'
p2185
I9
tp2186
a(S'2013-06-23'
p2187
I9
tp2188
a(S'2013-06-30'
p2189
I8
tp2190
a(S'2013-07-07'
p2191
I7
tp2192
a(S'2013-07-14'
p2193
I7
tp2194
a(S'2013-07-21'
p2195
I7
tp2196
a(S'2013-07-28'
p2197
I7
tp2198
a(S'2013-08-04'
p2199
I7
tp2200
a(S'2013-08-11'
p2201
I7
tp2202
a(S'2013-08-18'
p2203
I7
tp2204
a(S'2013-08-25'
p2205
I7
tp2206
a(S'2013-09-01'
p2207
I6
tp2208
a(S'2013-09-08'
p2209
I8
tp2210
a(S'2013-09-15'
p2211
I10
tp2212
a(S'2013-09-22'
p2213
I8
tp2214
a(S'2013-10-06'
p2215
I10
tp2216
a(S'2013-10-13'
p2217
I9
tp2218
a(S'2013-10-20'
p2219
I8
tp2220
a(S'2013-10-27'
p2221
I10
tp2222
a(S'2013-11-10'
p2223
I10
tp2224
a(S'2013-11-17'
p2225
I6
tp2226
a(S'2013-11-24'
p2227
I6
tp2228
a(S'2013-12-01'
p2229
I6
tp2230
a(S'2013-12-08'
p2231
I6
tp2232
a(S'2013-12-15'
p2233
I5
tp2234
a(S'2013-12-22'
p2235
I5
tp2236
a(S'2013-12-29'
p2237
I6
tp2238
a(S'2014-01-05'
p2239
I7
tp2240
a(S'2014-01-12'
p2241
I7
tp2242
a(S'2014-01-19'
p2243
I8
tp2244
a(S'2014-01-26'
p2245
I9
tp2246
a(S'2014-02-02'
p2247
I5
tp2248
a(S'2014-02-09'
p2249
I5
tp2250
a(S'2014-02-16'
p2251
I5
tp2252
a(S'2014-02-23'
p2253
I5
tp2254
a(S'2014-03-02'
p2255
I5
tp2256
a(S'2014-03-09'
p2257
I4
tp2258
a(S'2014-03-16'
p2259
I4
tp2260
a(S'2014-03-23'
p2261
I4
tp2262
a(S'2014-03-30'
p2263
I4
tp2264
a(S'2014-04-06'
p2265
I4
tp2266
a(S'2014-04-13'
p2267
I5
tp2268
a(S'2014-04-20'
p2269
I5
tp2270
a(S'2014-04-27'
p2271
I5
tp2272
a(S'2014-05-04'
p2273
I6
tp2274
a(S'2014-05-11'
p2275
I6
tp2276
a(S'2014-05-18'
p2277
I5
tp2278
a(S'2014-05-25'
p2279
I5
tp2280
a(S'2014-06-01'
p2281
I8
tp2282
a(S'2014-06-08'
p2283
I9
tp2284
a(S'2014-06-15'
p2285
I10
tp2286
a(S'2014-06-22'
p2287
I10
tp2288
a(S'2014-06-29'
p2289
I7
tp2290
a(S'2014-07-06'
p2291
I10
tp2292
a(S'2014-07-13'
p2293
I10
tp2294
a(S'2014-07-20'
p2295
I8
tp2296
a(S'2014-08-03'
p2297
I9
tp2298
a(S'2014-08-10'
p2299
I9
tp2300
a(S'2014-08-17'
p2301
I8
tp2302
a(S'2014-08-24'
p2303
I8
tp2304
a(S'2014-08-31'
p2305
I10
tp2306
a(S'2014-09-07'
p2307
I10
tp2308
a(S'2014-09-14'
p2309
I9
tp2310
a(S'2014-09-21'
p2311
I8
tp2312
a(S'2014-09-28'
p2313
I9
tp2314
a(S'2014-10-05'
p2315
I10
tp2316
a(S'2014-10-12'
p2317
I10
tp2318
a(S'2014-10-19'
p2319
I10
tp2320
a(S'2014-10-26'
p2321
I10
tp2322
a(S'2014-11-02'
p2323
I10
tp2324
a(S'2014-11-09'
p2325
I10
tp2326
a(S'2014-11-16'
p2327
I10
tp2328
a(S'2014-11-23'
p2329
I10
tp2330
a(S'2014-11-30'
p2331
I10
tp2332
a(S'2014-12-07'
p2333
I10
tp2334
a(S'2014-12-28'
p2335
I5
tp2336
a(S'2015-01-04'
p2337
I10
tp2338
a(S'2015-01-11'
p2339
I10
tp2340
a(S'2015-01-18'
p2341
I9
tp2342
a(S'2015-01-25'
p2343
I10
tp2344
a(S'2015-03-15'
p2345
I4
tp2346
a(S'2015-03-22'
p2347
I1
tp2348
a(S'2015-03-29'
p2349
I3
tp2350
a(S'2015-04-05'
p2351
I7
tp2352
a(S'2015-04-12'
p2353
I4
tp2354
a(S'2015-04-19'
p2355
I4
tp2356
a(S'2015-04-26'
p2357
I5
tp2358
a(S'2015-05-03'
p2359
I4
tp2360
a(S'2015-05-10'
p2361
I4
tp2362
a(S'2015-05-17'
p2363
I5
tp2364
a(S'2015-05-24'
p2365
I7
tp2366
a(S'2015-05-31'
p2367
I7
tp2368
a(S'2015-06-07'
p2369
I5
tp2370
a(S'2015-06-14'
p2371
I5
tp2372
a(S'2015-06-21'
p2373
I5
tp2374
a(S'2015-06-28'
p2375
I6
tp2376
a(S'2015-07-05'
p2377
I5
tp2378
a(S'2015-07-12'
p2379
I5
tp2380
a(S'2015-07-19'
p2381
I5
tp2382
a(S'2015-07-26'
p2383
I5
tp2384
a(S'2015-08-02'
p2385
I8
tp2386
a(S'2015-08-09'
p2387
I6
tp2388
a(S'2015-08-16'
p2389
I5
tp2390
a(S'2015-08-23'
p2391
I5
tp2392
asVvanishing girls 
p2393
(lp2394
(S'2015-03-29'
p2395
I6
tp2396
asVhollow city 
p2397
(lp2398
(S'2014-02-02'
p2399
I3
tp2400
a(S'2014-02-09'
p2401
I3
tp2402
a(S'2014-02-16'
p2403
I3
tp2404
a(S'2014-02-23'
p2405
I4
tp2406
a(S'2014-03-02'
p2407
I4
tp2408
a(S'2014-03-09'
p2409
I5
tp2410
a(S'2014-03-16'
p2411
I5
tp2412
a(S'2014-03-23'
p2413
I5
tp2414
a(S'2014-03-30'
p2415
I6
tp2416
a(S'2014-04-06'
p2417
I6
tp2418
a(S'2014-04-13'
p2419
I7
tp2420
a(S'2014-04-20'
p2421
I7
tp2422
a(S'2014-04-27'
p2423
I9
tp2424
a(S'2014-05-04'
p2425
I10
tp2426
a(S'2014-05-11'
p2427
I9
tp2428
a(S'2014-05-18'
p2429
I9
tp2430
a(S'2014-05-25'
p2431
I10
tp2432
a(S'2014-12-28'
p2433
I8
tp2434
a(S'2015-03-15'
p2435
I8
tp2436
a(S'2015-03-22'
p2437
I6
tp2438
a(S'2015-04-12'
p2439
I10
tp2440
a(S'2015-04-26'
p2441
I10
tp2442
a(S'2015-05-03'
p2443
I9
tp2444
a(S'2015-05-10'
p2445
I10
tp2446
a(S'2015-05-17'
p2447
I10
tp2448
asVasylum 
p2449
(lp2450
(S'2013-09-15'
p2451
I9
tp2452
a(S'2014-08-17'
p2453
I9
tp2454
a(S'2014-10-26'
p2455
I7
tp2456
a(S'2014-11-02'
p2457
I9
tp2458
asVatlantia 
p2459
(lp2460
(S'2014-11-16'
p2461
I7
tp2462
asVsmoke 
p2463
(lp2464
(S'2013-09-29'
p2465
I6
tp2466
asVp. s. i still love you 
p2467
(lp2468
(S'2015-06-14'
p2469
I2
tp2470
a(S'2015-06-21'
p2471
I9
tp2472
asValliance 
p2473
(lp2474
(S'2014-01-26'
p2475
I5
tp2476
asVdorothy must die 
p2477
(lp2478
(S'2015-04-05'
p2479
I5
tp2480
a(S'2015-04-19'
p2481
I7
tp2482
a(S'2015-04-26'
p2483
I6
tp2484
a(S'2015-05-03'
p2485
I5
tp2486
a(S'2015-05-10'
p2487
I5
tp2488
a(S'2015-05-17'
p2489
I6
tp2490
a(S'2015-05-24'
p2491
I10
tp2492
asVthe heart of betrayal 
p2493
(lp2494
(S'2015-07-26'
p2495
I6
tp2496
asVpaper towns 
p2497
(lp2498
(S'2012-12-23'
p2499
I9
tp2500
a(S'2012-12-30'
p2501
I10
tp2502
a(S'2013-01-06'
p2503
I9
tp2504
a(S'2013-02-17'
p2505
I9
tp2506
a(S'2013-03-10'
p2507
I6
tp2508
a(S'2013-03-24'
p2509
I8
tp2510
a(S'2013-03-31'
p2511
I7
tp2512
a(S'2013-04-07'
p2513
I6
tp2514
a(S'2013-04-14'
p2515
I6
tp2516
a(S'2013-04-21'
p2517
I6
tp2518
a(S'2013-04-28'
p2519
I7
tp2520
a(S'2013-05-05'
p2521
I8
tp2522
a(S'2013-05-12'
p2523
I7
tp2524
a(S'2013-05-19'
p2525
I9
tp2526
a(S'2013-05-26'
p2527
I9
tp2528
a(S'2013-06-09'
p2529
I9
tp2530
a(S'2013-06-16'
p2531
I8
tp2532
a(S'2013-06-23'
p2533
I10
tp2534
a(S'2013-06-30'
p2535
I10
tp2536
a(S'2013-07-07'
p2537
I9
tp2538
a(S'2013-07-14'
p2539
I9
tp2540
a(S'2013-07-21'
p2541
I9
tp2542
a(S'2013-07-28'
p2543
I8
tp2544
a(S'2013-08-04'
p2545
I9
tp2546
a(S'2013-08-11'
p2547
I8
tp2548
a(S'2013-08-18'
p2549
I8
tp2550
a(S'2013-08-25'
p2551
I8
tp2552
a(S'2013-09-01'
p2553
I9
tp2554
a(S'2013-09-29'
p2555
I10
tp2556
a(S'2013-10-06'
p2557
I9
tp2558
a(S'2013-10-13'
p2559
I10
tp2560
a(S'2013-10-27'
p2561
I9
tp2562
a(S'2013-11-03'
p2563
I8
tp2564
a(S'2013-11-10'
p2565
I7
tp2566
a(S'2013-11-17'
p2567
I9
tp2568
a(S'2013-11-24'
p2569
I7
tp2570
a(S'2013-12-01'
p2571
I7
tp2572
a(S'2013-12-08'
p2573
I8
tp2574
a(S'2013-12-15'
p2575
I8
tp2576
a(S'2013-12-22'
p2577
I6
tp2578
a(S'2013-12-29'
p2579
I7
tp2580
a(S'2014-01-05'
p2581
I6
tp2582
a(S'2014-01-12'
p2583
I4
tp2584
a(S'2014-01-19'
p2585
I5
tp2586
a(S'2014-01-26'
p2587
I7
tp2588
a(S'2014-02-02'
p2589
I7
tp2590
a(S'2014-02-09'
p2591
I6
tp2592
a(S'2014-02-16'
p2593
I6
tp2594
a(S'2014-02-23'
p2595
I6
tp2596
a(S'2014-03-02'
p2597
I6
tp2598
a(S'2014-03-09'
p2599
I6
tp2600
a(S'2014-03-16'
p2601
I6
tp2602
a(S'2014-03-23'
p2603
I6
tp2604
a(S'2014-03-30'
p2605
I5
tp2606
a(S'2014-04-06'
p2607
I5
tp2608
a(S'2014-04-13'
p2609
I4
tp2610
a(S'2014-04-20'
p2611
I4
tp2612
a(S'2014-04-27'
p2613
I4
tp2614
a(S'2014-05-04'
p2615
I4
tp2616
a(S'2014-05-11'
p2617
I4
tp2618
a(S'2014-05-18'
p2619
I4
tp2620
a(S'2014-05-25'
p2621
I4
tp2622
a(S'2014-06-01'
p2623
I4
tp2624
a(S'2014-06-08'
p2625
I4
tp2626
a(S'2014-06-15'
p2627
I3
tp2628
a(S'2014-06-22'
p2629
I4
tp2630
a(S'2014-06-29'
p2631
I4
tp2632
a(S'2014-07-06'
p2633
I4
tp2634
a(S'2014-07-13'
p2635
I4
tp2636
a(S'2014-07-20'
p2637
I4
tp2638
a(S'2014-07-27'
p2639
I4
tp2640
a(S'2014-08-03'
p2641
I4
tp2642
a(S'2014-08-10'
p2643
I5
tp2644
a(S'2014-08-17'
p2645
I6
tp2646
a(S'2014-08-24'
p2647
I6
tp2648
a(S'2014-08-31'
p2649
I6
tp2650
a(S'2014-09-07'
p2651
I6
tp2652
a(S'2014-09-14'
p2653
I5
tp2654
a(S'2014-09-21'
p2655
I5
tp2656
a(S'2014-09-28'
p2657
I5
tp2658
a(S'2014-10-05'
p2659
I6
tp2660
a(S'2014-10-12'
p2661
I6
tp2662
a(S'2014-10-19'
p2663
I7
tp2664
a(S'2014-10-26'
p2665
I8
tp2666
a(S'2014-11-02'
p2667
I8
tp2668
a(S'2014-11-09'
p2669
I7
tp2670
a(S'2014-11-16'
p2671
I5
tp2672
a(S'2014-11-23'
p2673
I5
tp2674
a(S'2014-11-30'
p2675
I5
tp2676
a(S'2014-12-07'
p2677
I5
tp2678
a(S'2014-12-14'
p2679
I3
tp2680
a(S'2014-12-21'
p2681
I5
tp2682
a(S'2014-12-28'
p2683
I3
tp2684
a(S'2015-01-04'
p2685
I3
tp2686
a(S'2015-01-11'
p2687
I4
tp2688
a(S'2015-01-18'
p2689
I5
tp2690
a(S'2015-01-25'
p2691
I5
tp2692
a(S'2015-02-01'
p2693
I4
tp2694
a(S'2015-02-08'
p2695
I3
tp2696
a(S'2015-02-15'
p2697
I4
tp2698
a(S'2015-02-22'
p2699
I3
tp2700
a(S'2015-03-01'
p2701
I3
tp2702
a(S'2015-03-08'
p2703
I3
tp2704
a(S'2015-03-15'
p2705
I3
tp2706
a(S'2015-03-22'
p2707
I2
tp2708
a(S'2015-03-29'
p2709
I1
tp2710
a(S'2015-04-05'
p2711
I1
tp2712
a(S'2015-04-12'
p2713
I1
tp2714
a(S'2015-04-19'
p2715
I1
tp2716
a(S'2015-04-26'
p2717
I1
tp2718
a(S'2015-05-03'
p2719
I1
tp2720
a(S'2015-05-10'
p2721
I1
tp2722
a(S'2015-05-17'
p2723
I1
tp2724
a(S'2015-05-24'
p2725
I1
tp2726
a(S'2015-05-31'
p2727
I1
tp2728
a(S'2015-06-07'
p2729
I1
tp2730
a(S'2015-06-14'
p2731
I1
tp2732
a(S'2015-06-21'
p2733
I1
tp2734
a(S'2015-06-28'
p2735
I1
tp2736
a(S'2015-07-05'
p2737
I1
tp2738
a(S'2015-07-12'
p2739
I1
tp2740
a(S'2015-07-19'
p2741
I1
tp2742
a(S'2015-07-26'
p2743
I1
tp2744
a(S'2015-08-02'
p2745
I1
tp2746
a(S'2015-08-09'
p2747
I1
tp2748
a(S'2015-08-16'
p2749
I1
tp2750
a(S'2015-08-23'
p2751
I1
tp2752
asVindependent study 
p2753
(lp2754
(S'2014-01-26'
p2755
I8
tp2756
asVeleanor and park 
p2757
(lp2758
(S'2013-03-31'
p2759
I6
tp2760
a(S'2013-11-17'
p2761
I7
tp2762
a(S'2013-12-01'
p2763
I10
tp2764
a(S'2013-12-15'
p2765
I10
tp2766
a(S'2013-12-22'
p2767
I8
tp2768
a(S'2013-12-29'
p2769
I3
tp2770
a(S'2014-01-05'
p2771
I5
tp2772
a(S'2014-01-12'
p2773
I8
tp2774
a(S'2014-01-19'
p2775
I7
tp2776
a(S'2014-01-26'
p2777
I6
tp2778
a(S'2014-02-02'
p2779
I8
tp2780
a(S'2014-02-09'
p2781
I10
tp2782
a(S'2014-02-16'
p2783
I10
tp2784
a(S'2014-03-02'
p2785
I7
tp2786
a(S'2014-03-09'
p2787
I8
tp2788
a(S'2014-03-16'
p2789
I8
tp2790
a(S'2014-04-06'
p2791
I10
tp2792
a(S'2014-04-13'
p2793
I10
tp2794
a(S'2014-04-20'
p2795
I6
tp2796
a(S'2014-04-27'
p2797
I7
tp2798
a(S'2014-05-04'
p2799
I8
tp2800
a(S'2014-05-11'
p2801
I10
tp2802
a(S'2014-05-25'
p2803
I9
tp2804
a(S'2014-06-01'
p2805
I10
tp2806
a(S'2014-06-08'
p2807
I8
tp2808
a(S'2014-06-15'
p2809
I8
tp2810
a(S'2014-06-22'
p2811
I8
tp2812
a(S'2014-06-29'
p2813
I10
tp2814
a(S'2014-07-06'
p2815
I7
tp2816
a(S'2014-07-13'
p2817
I7
tp2818
a(S'2014-07-20'
p2819
I7
tp2820
a(S'2014-07-27'
p2821
I7
tp2822
a(S'2014-08-03'
p2823
I7
tp2824
a(S'2014-08-10'
p2825
I8
tp2826
a(S'2014-08-17'
p2827
I7
tp2828
a(S'2014-08-24'
p2829
I7
tp2830
a(S'2014-08-31'
p2831
I7
tp2832
a(S'2014-09-07'
p2833
I7
tp2834
a(S'2014-09-14'
p2835
I8
tp2836
a(S'2014-09-21'
p2837
I7
tp2838
a(S'2014-09-28'
p2839
I7
tp2840
a(S'2014-10-12'
p2841
I9
tp2842
a(S'2014-11-23'
p2843
I8
tp2844
a(S'2014-12-14'
p2845
I7
tp2846
a(S'2014-12-21'
p2847
I10
tp2848
a(S'2015-01-04'
p2849
I7
tp2850
a(S'2015-01-11'
p2851
I6
tp2852
a(S'2015-01-18'
p2853
I6
tp2854
a(S'2015-01-25'
p2855
I7
tp2856
a(S'2015-02-01'
p2857
I8
tp2858
a(S'2015-02-08'
p2859
I7
tp2860
a(S'2015-02-22'
p2861
I10
tp2862
a(S'2015-06-21'
p2863
I8
tp2864
a(S'2015-06-28'
p2865
I10
tp2866
a(S'2015-07-05'
p2867
I9
tp2868
a(S'2015-07-12'
p2869
I9
tp2870
a(S'2015-07-19'
p2871
I10
tp2872
a(S'2015-08-09'
p2873
I9
tp2874
a(S'2015-08-16'
p2875
I9
tp2876
a(S'2015-08-23'
p2877
I9
tp2878
asVthe absolutely true diary of a part-time indian 
p2879
(lp2880
(S'2013-01-27'
p2881
I10
tp2882
a(S'2013-02-03'
p2883
I7
tp2884
a(S'2013-02-10'
p2885
I9
tp2886
a(S'2013-08-25'
p2887
I9
tp2888
a(S'2013-09-01'
p2889
I8
tp2890
a(S'2013-09-08'
p2891
I9
tp2892
a(S'2013-09-15'
p2893
I8
tp2894
a(S'2013-09-22'
p2895
I7
tp2896
a(S'2014-09-21'
p2897
I10
tp2898
a(S'2014-09-28'
p2899
I8
tp2900
a(S'2014-10-05'
p2901
I9
tp2902
a(S'2015-02-01'
p2903
I7
tp2904
a(S'2015-05-10'
p2905
I8
tp2906
a(S'2015-05-17'
p2907
I8
tp2908
a(S'2015-05-31'
p2909
I10
tp2910
a(S'2015-07-05'
p2911
I8
tp2912
a(S'2015-07-12'
p2913
I10
tp2914
a(S'2015-07-26'
p2915
I7
tp2916
a(S'2015-08-02'
p2917
I10
tp2918
a(S'2015-08-09'
p2919
I8
tp2920
a(S'2015-08-16'
p2921
I8
tp2922
a(S'2015-08-23'
p2923
I7
tp2924
asVdangerous creatures 
p2925
(lp2926
(S'2014-06-08'
p2927
I7
tp2928
asVto all the boys i've loved before 
p2929
(lp2930
(S'2015-03-01'
p2931
I7
tp2932
a(S'2015-03-08'
p2933
I9
tp2934
asVwhere she went 
p2935
(lp2936
(S'2014-06-29'
p2937
I8
tp2938
a(S'2014-07-06'
p2939
I8
tp2940
a(S'2014-07-13'
p2941
I8
tp2942
a(S'2014-07-20'
p2943
I9
tp2944
a(S'2014-07-27'
p2945
I9
tp2946
a(S'2014-08-03'
p2947
I8
tp2948
a(S'2014-08-10'
p2949
I4
tp2950
a(S'2014-08-17'
p2951
I3
tp2952
a(S'2014-08-24'
p2953
I3
tp2954
a(S'2014-08-31'
p2955
I3
tp2956
a(S'2014-09-07'
p2957
I3
tp2958
a(S'2014-09-14'
p2959
I2
tp2960
a(S'2014-09-21'
p2961
I2
tp2962
a(S'2014-09-28'
p2963
I3
tp2964
a(S'2014-10-05'
p2965
I3
tp2966
a(S'2014-10-12'
p2967
I3
tp2968
a(S'2014-10-19'
p2969
I3
tp2970
a(S'2014-10-26'
p2971
I3
tp2972
a(S'2014-11-02'
p2973
I3
tp2974
a(S'2014-11-09'
p2975
I3
tp2976
a(S'2014-11-16'
p2977
I3
tp2978
a(S'2014-11-23'
p2979
I4
tp2980
a(S'2014-11-30'
p2981
I3
tp2982
a(S'2014-12-07'
p2983
I3
tp2984
a(S'2014-12-14'
p2985
I4
tp2986
a(S'2014-12-21'
p2987
I3
tp2988
a(S'2014-12-28'
p2989
I6
tp2990
a(S'2015-01-04'
p2991
I5
tp2992
a(S'2015-01-11'
p2993
I3
tp2994
a(S'2015-01-18'
p2995
I2
tp2996
a(S'2015-01-25'
p2997
I4
tp2998
a(S'2015-02-01'
p2999
I5
tp3000
a(S'2015-02-08'
p3001
I5
tp3002
a(S'2015-02-15'
p3003
I5
tp3004
a(S'2015-02-22'
p3005
I5
tp3006
a(S'2015-03-01'
p3007
I6
tp3008
a(S'2015-03-08'
p3009
I8
tp3010
a(S'2015-03-15'
p3011
I9
tp3012
a(S'2015-03-22'
p3013
I9
tp3014
a(S'2015-04-05'
p3015
I10
tp3016
a(S'2015-04-12'
p3017
I9
tp3018
a(S'2015-04-19'
p3019
I10
tp3020
a(S'2015-05-03'
p3021
I10
tp3022
as.