(lp0
(lp1
(I1
cnumpy.core.multiarray
scalar
p2
(cnumpy
dtype
p3
(S'f4'
p4
I0
I1
tp5
Rp6
(I3
S'<'
p7
NNNI-1
I-1
I0
tp8
bS'\x8ce\x02?'
p9
tp10
Rp11
tp12
a(I298
g2
(g6
S'j\xe9\xc4>'
p13
tp14
Rp15
tp16
a(I397
g2
(g6
S'\xb3\xc7\x88>'
p17
tp18
Rp19
tp20
aa(lp21
(I298
g2
(g6
S'\xb65-?'
p22
tp23
Rp24
tp25
a(I0
g2
(g6
S'\x8ce\x02?'
p26
tp27
Rp28
tp29
a(I318
g2
(g6
S'\x04U\xd2>'
p30
tp31
Rp32
tp33
aa(lp34
(I261
g2
(g6
S'\xa8:\xbd>'
p35
tp36
Rp37
tp38
a(I366
g2
(g6
S'\xfb\x01\xb5>'
p39
tp40
Rp41
tp42
a(I44
g2
(g6
S'v\xe6\xa2>'
p43
tp44
Rp45
tp46
aa(lp47
(I203
g2
(g6
S'V\x8d\x80>'
p48
tp49
Rp50
tp51
a(I28
g2
(g6
S'\xb0^t>'
p52
tp53
Rp54
tp55
a(I101
g2
(g6
S'\xfc/j>'
p56
tp57
Rp58
tp59
aa(lp60
(I112
g2
(g6
S'\xbb\x14V?'
p61
tp62
Rp63
tp64
a(I353
g2
(g6
S'\x0c\xac+?'
p65
tp66
Rp67
tp68
a(I257
g2
(g6
S'\xe8f\xbb>'
p69
tp70
Rp71
tp72
aa(lp73
(I9
g2
(g6
S'\xd2#\x07?'
p74
tp75
Rp76
tp77
a(I83
g2
(g6
S'8\xec\xce>'
p78
tp79
Rp80
tp81
a(I285
g2
(g6
S'\xd6\xf2\xc3>'
p82
tp83
Rp84
tp85
aa(lp86
(I130
g2
(g6
S'x\xe7R>'
p87
tp88
Rp89
tp90
a(I299
g2
(g6
S'q\xf9\x0e>'
p91
tp92
Rp93
tp94
a(I50
g2
(g6
S'[\x07\r>'
p95
tp96
Rp97
tp98
aa(lp99
(I225
g2
(g6
S'\x0f\x857>'
p100
tp101
Rp102
tp103
a(I372
g2
(g6
S'~\xbe2>'
p104
tp105
Rp106
tp107
a(I0
g2
(g6
S'\x06|,>'
p108
tp109
Rp110
tp111
aa(lp112
(I38
g2
(g6
S'\xbd\x06w>'
p113
tp114
Rp115
tp116
a(I347
g2
(g6
S'\xc4\x9dX>'
p117
tp118
Rp119
tp120
a(I176
g2
(g6
S'\xa7\xc92>'
p121
tp122
Rp123
tp124
aa(lp125
(I285
g2
(g6
S'\xf4\xc9\x16?'
p126
tp127
Rp128
tp129
a(I5
g2
(g6
S'\xd2#\x07?'
p130
tp131
Rp132
tp133
a(I276
g2
(g6
S'\xa9\xd9\x90>'
p134
tp135
Rp136
tp137
aa(lp138
(I185
g2
(g6
S'\xd1\xab\x1f?'
p139
tp140
Rp141
tp142
a(I284
g2
(g6
S'\x8ea\xc0>'
p143
tp144
Rp145
tp146
a(I389
g2
(g6
S'\xd7U\xbf>'
p147
tp148
Rp149
tp150
aa(lp151
(I170
g2
(g6
S'~\x90\xac>'
p152
tp153
Rp154
tp155
a(I294
g2
(g6
S'XS\x87>'
p156
tp157
Rp158
tp159
a(I61
g2
(g6
S'$\x91I>'
p160
tp161
Rp162
tp163
aa(lp164
(I278
g2
(g6
S"\xc2'\x07?"
p165
tp166
Rp167
tp168
a(I211
g2
(g6
S')\x88\x00?'
p169
tp170
Rp171
tp172
a(I221
g2
(g6
S'Z\x8f\xdb>'
p173
tp174
Rp175
tp176
aa(lp177
(I255
g2
(g6
S'>\xfc\x04?'
p178
tp179
Rp180
tp181
a(I64
g2
(g6
S'\x88\xe4\x03?'
p182
tp183
Rp184
tp185
a(I87
g2
(g6
S'\xc1h\x8c>'
p186
tp187
Rp188
tp189
aa(lp190
(I346
g2
(g6
S'\x02\xa1\x12?'
p191
tp192
Rp193
tp194
a(I345
g2
(g6
S'\xa1\x12\xd8>'
p195
tp196
Rp197
tp198
a(I107
g2
(g6
S'\\\x92\x8c>'
p199
tp200
Rp201
tp202
aa(lp203
(I228
g2
(g6
S'\xfe\xadS>'
p204
tp205
Rp206
tp207
a(I209
g2
(g6
S'\x0c\xf6O>'
p208
tp209
Rp210
tp211
a(I25
g2
(g6
S'\x08l!>'
p212
tp213
Rp214
tp215
aa(lp216
(I330
g2
(g6
S'\xcdq+?'
p217
tp218
Rp219
tp220
a(I336
g2
(g6
S'Ew">'
p221
tp222
Rp223
tp224
a(I161
g2
(g6
S'\xc3]\xf7='
p225
tp226
Rp227
tp228
aa(lp229
(I287
g2
(g6
S'\x1e\xf5`>'
p230
tp231
Rp232
tp233
a(I118
g2
(g6
S'T\xc5\x1e>'
p234
tp235
Rp236
tp237
a(I33
g2
(g6
S'\xf6\xd7\x08>'
p238
tp239
Rp240
tp241
aa(lp242
(I276
g2
(g6
S'\xc5Z\xd5>'
p243
tp244
Rp245
tp246
a(I331
g2
(g6
S'\x8c\xc4\xad>'
p247
tp248
Rp249
tp250
a(I74
g2
(g6
S'\x96\xb2\xac>'
p251
tp252
Rp253
tp254
aa(lp255
(I137
g2
(g6
S'j{&?'
p256
tp257
Rp258
tp259
a(I139
g2
(g6
S'\x99\xc2h>'
p260
tp261
Rp262
tp263
a(I368
g2
(g6
S'\xdehX>'
p264
tp265
Rp266
tp267
aa(lp268
(I93
g2
(g6
S'\xf4\x00\x90>'
p269
tp270
Rp271
tp272
a(I134
g2
(g6
S'\xf9\xdd\x88>'
p273
tp274
Rp275
tp276
a(I3
g2
(g6
S'8\xfcV>'
p277
tp278
Rp279
tp280
aa(lp281
(I56
g2
(g6
S'\xc8\x97I>'
p282
tp283
Rp284
tp285
a(I340
g2
(g6
S'\\f">'
p286
tp287
Rp288
tp289
a(I87
g2
(g6
S':\t\x19>'
p290
tp291
Rp292
tp293
aa(lp294
(I99
g2
(g6
S'\xd4\xbcE>'
p295
tp296
Rp297
tp298
a(I261
g2
(g6
S'aW\x10>'
p299
tp300
Rp301
tp302
a(I42
g2
(g6
S'\xab*\x05>'
p303
tp304
Rp305
tp306
aa(lp307
(I273
g2
(g6
S'v+\xf2>'
p308
tp309
Rp310
tp311
a(I116
g2
(g6
S'\xef\x02a>'
p312
tp313
Rp314
tp315
a(I5
g2
(g6
S'\xd7\xd6Z>'
p316
tp317
Rp318
tp319
aa(lp320
(I281
g2
(g6
S'\x95Vx>'
p321
tp322
Rp323
tp324
a(I157
g2
(g6
S'\xc1f\\>'
p325
tp326
Rp327
tp328
a(I162
g2
(g6
S'\xbc\x11P>'
p329
tp330
Rp331
tp332
aa(lp333
(I243
g2
(g6
S'\xf4\xa8\x8c>'
p334
tp335
Rp336
tp337
a(I148
g2
(g6
S'\xd8\xcca>'
p338
tp339
Rp340
tp341
a(I351
g2
(g6
S'\xbc\xa3K>'
p342
tp343
Rp344
tp345
aa(lp346
(I228
g2
(g6
S'\xad&>>'
p347
tp348
Rp349
tp350
a(I145
g2
(g6
S'\x10\xcb;>'
p351
tp352
Rp353
tp354
a(I234
g2
(g6
S'\xbc\xc4\x1f>'
p355
tp356
Rp357
tp358
aa(lp359
(I134
g2
(g6
S'\xb9\xd4u>'
p360
tp361
Rp362
tp363
a(I323
g2
(g6
S'\x00X2>'
p364
tp365
Rp366
tp367
a(I217
g2
(g6
S'{\xc6 >'
p368
tp369
Rp370
tp371
aa(lp372
(I156
g2
(g6
S'\x98\xa5\xa1>'
p373
tp374
Rp375
tp376
a(I234
g2
(g6
S'N\xfd\x91>'
p377
tp378
Rp379
tp380
a(I99
g2
(g6
S'\xd7\x14\x8a>'
p381
tp382
Rp383
tp384
aa(lp385
(I121
g2
(g6
S'\x9e\x1eg>'
p386
tp387
Rp388
tp389
a(I159
g2
(g6
S"Z'Y>"
p390
tp391
Rp392
tp393
a(I118
g2
(g6
S'\xfd7H>'
p394
tp395
Rp396
tp397
aa(lp398
(I303
g2
(g6
S'\x7f\x8e^?'
p399
tp400
Rp401
tp402
a(I169
g2
(g6
S'\xa6\xed\xb8>'
p403
tp404
Rp405
tp406
a(I359
g2
(g6
S'4\xbeE>'
p407
tp408
Rp409
tp410
aa(lp411
(I266
g2
(g6
S'&0f?'
p412
tp413
Rp414
tp415
a(I314
g2
(g6
S'\x9d/\xbf='
p416
tp417
Rp418
tp419
a(I315
g2
(g6
S'4\xa7\xbb='
p420
tp421
Rp422
tp423
aa(lp424
(I260
g2
(g6
S'\xc0\xcf\x8a>'
p425
tp426
Rp427
tp428
a(I368
g2
(g6
S'\x01|\x85>'
p429
tp430
Rp431
tp432
a(I0
g2
(g6
S'\x83\xb1x>'
p433
tp434
Rp435
tp436
aa(lp437
(I309
g2
(g6
S'\xa9\x81\xe2>'
p438
tp439
Rp440
tp441
a(I142
g2
(g6
S'\xf6\x94\xb7>'
p442
tp443
Rp444
tp445
a(I269
g2
(g6
S'\x1a)\xaf>'
p446
tp447
Rp448
tp449
aa(lp450
(I370
g2
(g6
S'\x96\xa7\x10?'
p451
tp452
Rp453
tp454
a(I37
g2
(g6
S'(\xb1\xf9>'
p455
tp456
Rp457
tp458
a(I265
g2
(g6
S'\xf4a\xe6>'
p459
tp460
Rp461
tp462
aa(lp463
(I340
g2
(g6
S'\x03\xbeu>'
p464
tp465
Rp466
tp467
a(I94
g2
(g6
S'\xd0\x8e5>'
p468
tp469
Rp470
tp471
a(I194
g2
(g6
S'o6!>'
p472
tp473
Rp474
tp475
aa(lp476
(I59
g2
(g6
S'\xca]\x92>'
p477
tp478
Rp479
tp480
a(I193
g2
(g6
S'\x17\xb9\x80>'
p481
tp482
Rp483
tp484
a(I365
g2
(g6
S'\x8a\x19,>'
p485
tp486
Rp487
tp488
aa(lp489
(I34
g2
(g6
S'(\xb1\xf9>'
p490
tp491
Rp492
tp493
a(I370
g2
(g6
S'\xbcC\x96>'
p494
tp495
Rp496
tp497
a(I384
g2
(g6
S'sfC>'
p498
tp499
Rp500
tp501
aa(lp502
(I297
g2
(g6
S'B5\x98>'
p503
tp504
Rp505
tp506
a(I55
g2
(g6
S'v\x95~>'
p507
tp508
Rp509
tp510
a(I171
g2
(g6
S'\x03\xedw>'
p511
tp512
Rp513
tp514
aa(lp515
(I124
g2
(g6
S'l\x9e\x9a>'
p516
tp517
Rp518
tp519
a(I330
g2
(g6
S'\xd8/\x93>'
p520
tp521
Rp522
tp523
a(I382
g2
(g6
S'\xb2\xb9d>'
p524
tp525
Rp526
tp527
aa(lp528
(I259
g2
(g6
S'&Qa>'
p529
tp530
Rp531
tp532
a(I10
g2
(g6
S'\xe7\x1b<>'
p533
tp534
Rp535
tp536
a(I288
g2
(g6
S'&\x8d9>'
p537
tp538
Rp539
tp540
aa(lp541
(I184
g2
(g6
S'\x86w\xac>'
p542
tp543
Rp544
tp545
a(I170
g2
(g6
S'\xca\x1d\x9d>'
p546
tp547
Rp548
tp549
a(I301
g2
(g6
S'!\xfcR>'
p550
tp551
Rp552
tp553
aa(lp554
(I176
g2
(g6
S'n\xd5\xda>'
p555
tp556
Rp557
tp558
a(I270
g2
(g6
S'\xb0\xa6a>'
p559
tp560
Rp561
tp562
a(I293
g2
(g6
S'\xfe\x89?>'
p563
tp564
Rp565
tp566
aa(lp567
(I278
g2
(g6
S'\xdf^:>'
p568
tp569
Rp570
tp571
a(I202
g2
(g6
S'\xe1p\x12>'
p572
tp573
Rp574
tp575
a(I346
g2
(g6
S'+P\x0f>'
p576
tp577
Rp578
tp579
aa(lp580
(I2
g2
(g6
S'v\xe6\xa2>'
p581
tp582
Rp583
tp584
a(I303
g2
(g6
S'\x95\xf1t>'
p585
tp586
Rp587
tp588
a(I66
g2
(g6
S'7\xae->'
p589
tp590
Rp591
tp592
aa(lp593
(I77
g2
(g6
S'&\xb9\x83>'
p594
tp595
Rp596
tp597
a(I326
g2
(g6
S'd!B>'
p598
tp599
Rp600
tp601
a(I177
g2
(g6
S',\x16?>'
p602
tp603
Rp604
tp605
aa(lp606
(I254
g2
(g6
S'\x06\xf7T?'
p607
tp608
Rp609
tp610
a(I316
g2
(g6
S'\x12j\x0f?'
p611
tp612
Rp613
tp614
a(I358
g2
(g6
S'\x1c\xfd_>'
p615
tp616
Rp617
tp618
aa(lp619
(I128
g2
(g6
S'n\xbb\xc2>'
p620
tp621
Rp622
tp623
a(I91
g2
(g6
S'f\x17\x9c>'
p624
tp625
Rp626
tp627
a(I60
g2
(g6
S'h\\(>'
p628
tp629
Rp630
tp631
aa(lp632
(I125
g2
(g6
S'\xbdl\x8c>'
p633
tp634
Rp635
tp636
a(I349
g2
(g6
S'\x129S>'
p637
tp638
Rp639
tp640
a(I253
g2
(g6
S'\xfa\x0eO>'
p641
tp642
Rp643
tp644
aa(lp645
(I141
g2
(g6
S'\x8e\x97p>'
p646
tp647
Rp648
tp649
a(I94
g2
(g6
S'#\x1f/>'
p650
tp651
Rp652
tp653
a(I351
g2
(g6
S"\xcc\x1d'>"
p654
tp655
Rp656
tp657
aa(lp658
(I78
g2
(g6
S'm\xff\xaa>'
p659
tp660
Rp661
tp662
a(I257
g2
(g6
S'\x1e\x86\x8b>'
p663
tp664
Rp665
tp666
a(I324
g2
(g6
S'\xe17U>'
p667
tp668
Rp669
tp670
aa(lp671
(I379
g2
(g6
S'Dj\xad>'
p672
tp673
Rp674
tp675
a(I62
g2
(g6
S'\xd4`\x9f>'
p676
tp677
Rp678
tp679
a(I74
g2
(g6
S'N0\x84>'
p680
tp681
Rp682
tp683
aa(lp684
(I339
g2
(g6
S'\xde\x0e\x07?'
p685
tp686
Rp687
tp688
a(I55
g2
(g6
S'\xc1\x00\xed>'
p689
tp690
Rp691
tp692
a(I259
g2
(g6
S'\xd6x\x1b>'
p693
tp694
Rp695
tp696
aa(lp697
(I116
g2
(g6
S'\xb2\x0f\x83>'
p698
tp699
Rp700
tp701
a(I155
g2
(g6
S'Y\x8f\x81>'
p702
tp703
Rp704
tp705
a(I194
g2
(g6
S'\xea\x009>'
p706
tp707
Rp708
tp709
aa(lp710
(I86
g2
(g6
S'\xf6\xfc\x7f>'
p711
tp712
Rp713
tp714
a(I158
g2
(g6
S'+ k>'
p715
tp716
Rp717
tp718
a(I284
g2
(g6
S'\xd0*F>'
p719
tp720
Rp721
tp722
aa(lp723
(I52
g2
(g6
S'\xc1\x00\xed>'
p724
tp725
Rp726
tp727
a(I339
g2
(g6
S'pW\xec>'
p728
tp729
Rp730
tp731
a(I123
g2
(g6
S'H]\x83>'
p732
tp733
Rp734
tp735
aa(lp736
(I168
g2
(g6
S'+\xefs>'
p737
tp738
Rp739
tp740
a(I21
g2
(g6
S'\xc8\x97I>'
p741
tp742
Rp743
tp744
a(I72
g2
(g6
S'_\xaeG>'
p745
tp746
Rp747
tp748
aa(lp749
(I304
g2
(g6
S'.\xb2\xeb>'
p750
tp751
Rp752
tp753
a(I347
g2
(g6
S'\\\xed\xe8>'
p754
tp755
Rp756
tp757
a(I117
g2
(g6
S'Z\t\xb4>'
p758
tp759
Rp760
tp761
aa(lp762
(I208
g2
(g6
S'o\x04\x8d>'
p763
tp764
Rp765
tp766
a(I289
g2
(g6
S'D?\x8c>'
p767
tp768
Rp769
tp770
a(I223
g2
(g6
S'z\xeaW>'
p771
tp772
Rp773
tp774
aa(lp775
(I338
g2
(g6
S'u\x97\xc6>'
p776
tp777
Rp778
tp779
a(I36
g2
(g6
S'\xca]\x92>'
p780
tp781
Rp782
tp783
a(I141
g2
(g6
S'X\x13=>'
p784
tp785
Rp786
tp787
aa(lp788
(I307
g2
(g6
S'\xd8\xb4\x89>'
p789
tp790
Rp791
tp792
a(I79
g2
(g6
S' \xdaS>'
p793
tp794
Rp795
tp796
a(I380
g2
(g6
S' \x83Q>'
p797
tp798
Rp799
tp800
aa(lp801
(I11
g2
(g6
S'&\x91I>'
p802
tp803
Rp804
tp805
a(I179
g2
(g6
S'\x8a/(>'
p806
tp807
Rp808
tp809
a(I316
g2
(g6
S'\xd6\xf9\x14>'
p810
tp811
Rp812
tp813
aa(lp814
(I262
g2
(g6
S'\xd54\xa5>'
p815
tp816
Rp817
tp818
a(I51
g2
(g6
S'\xd4`\x9f>'
p819
tp820
Rp821
tp822
a(I85
g2
(g6
S'\xceJ\x9b>'
p823
tp824
Rp825
tp826
aa(lp827
(I215
g2
(g6
S't]\xee>'
p828
tp829
Rp830
tp831
a(I125
g2
(g6
S'\x0f\xba\x80>'
p832
tp833
Rp834
tp835
a(I342
g2
(g6
S'\xab\xa6{>'
p836
tp837
Rp838
tp839
aa(lp840
(I13
g2
(g6
S'\x88\xe4\x03?'
p841
tp842
Rp843
tp844
a(I387
g2
(g6
S'\xa2\x0c\xb7>'
p845
tp846
Rp847
tp848
a(I187
g2
(g6
S'R\xa0\x82>'
p849
tp850
Rp851
tp852
aa(lp853
(I333
g2
(g6
S'2\xfe\x80>'
p854
tp855
Rp856
tp857
a(I272
g2
(g6
S'EDu>'
p858
tp859
Rp860
tp861
a(I334
g2
(g6
S'T\xb1<>'
p862
tp863
Rp864
tp865
aa(lp866
(I395
g2
(g6
S'\xec\xea\xc1>'
p867
tp868
Rp869
tp870
a(I100
g2
(g6
S'P7\x9d>'
p871
tp872
Rp873
tp874
a(I340
g2
(g6
S'\xe5\xd45>'
p875
tp876
Rp877
tp878
aa(lp879
(I224
g2
(g6
S'.\xef\xd9>'
p880
tp881
Rp882
tp883
a(I191
g2
(g6
S'\x82\x00\xc4>'
p884
tp885
Rp886
tp887
a(I135
g2
(g6
S'b7\xb1>'
p888
tp889
Rp890
tp891
aa(lp892
(I129
g2
(g6
S'\x16P\x14>'
p893
tp894
Rp895
tp896
a(I140
g2
(g6
S'J\xa1\x0e>'
p897
tp898
Rp899
tp900
a(I23
g2
(g6
S'\xf0\xcf\xf7='
p901
tp902
Rp903
tp904
aa(lp905
(I124
g2
(g6
S'\x07\r^>'
p906
tp907
Rp908
tp909
a(I264
g2
(g6
S'\x9c\xe8]>'
p910
tp911
Rp912
tp913
a(I141
g2
(g6
S'7wP>'
p914
tp915
Rp916
tp917
aa(lp918
(I307
g2
(g6
S'sp)?'
p919
tp920
Rp921
tp922
a(I366
g2
(g6
S'\xfe\xe8\x01?'
p923
tp924
Rp925
tp926
a(I270
g2
(g6
S'9\xb9\x80>'
p927
tp928
Rp929
tp930
aa(lp931
(I223
g2
(g6
S'\xe6%\xf5>'
p932
tp933
Rp934
tp935
a(I205
g2
(g6
S'\xc0W\xf4>'
p936
tp937
Rp938
tp939
a(I393
g2
(g6
S'f\x7f\x85>'
p940
tp941
Rp942
tp943
aa(lp944
(I101
g2
(g6
S'\xe5\x19\x83>'
p945
tp946
Rp947
tp948
a(I143
g2
(g6
S'\xdc\x95\x80>'
p949
tp950
Rp951
tp952
a(I0
g2
(g6
S'\xae\x99t>'
p953
tp954
Rp955
tp956
aa(lp957
(I291
g2
(g6
S'tl2>'
p958
tp959
Rp960
tp961
a(I43
g2
(g6
S"'s\x0c>"
p962
tp963
Rp964
tp965
a(I198
g2
(g6
S'\xcc\xc0\x0b>'
p966
tp967
Rp968
tp969
aa(lp970
(I276
g2
(g6
S'\xbex\x11?'
p971
tp972
Rp973
tp974
a(I18
g2
(g6
S'\x96\xb2\xac>'
p975
tp976
Rp977
tp978
a(I51
g2
(g6
S'N0\x84>'
p979
tp980
Rp981
tp982
aa(lp983
(I220
g2
(g6
S'\xa0\xd9S>'
p984
tp985
Rp986
tp987
a(I139
g2
(g6
S'\x8d_?>'
p988
tp989
Rp990
tp991
a(I210
g2
(g6
S'\xb2\xcd=>'
p992
tp993
Rp994
tp995
aa(lp996
(I120
g2
(g6
S'P<6>'
p997
tp998
Rp999
tp1000
a(I21
g2
(g6
S'\x9f\x0e\x15>'
p1001
tp1002
Rp1003
tp1004
a(I135
g2
(g6
S'\xf2\x93\t>'
p1005
tp1006
Rp1007
tp1008
aa(lp1009
(I347
g2
(g6
S'*\xab\x0f?'
p1010
tp1011
Rp1012
tp1013
a(I390
g2
(g6
S'\x93n\xf7>'
p1014
tp1015
Rp1016
tp1017
a(I45
g2
(g6
S'&\xb9\x83>'
p1018
tp1019
Rp1020
tp1021
aa(lp1022
(I207
g2
(g6
S'l\xb5\xbc>'
p1023
tp1024
Rp1025
tp1026
a(I50
g2
(g6
S'l\xff\xaa>'
p1027
tp1028
Rp1029
tp1030
a(I301
g2
(g6
S'T\tr>'
p1031
tp1032
Rp1033
tp1034
aa(lp1035
(I60
g2
(g6
S'\x1e\xdaS>'
p1036
tp1037
Rp1038
tp1039
a(I261
g2
(g6
S'\x00\xf06>'
p1040
tp1041
Rp1042
tp1043
a(I25
g2
(g6
S'\x8b\x021>'
p1044
tp1045
Rp1046
tp1047
aa(lp1048
(I215
g2
(g6
S'\x16\xbc\xa6>'
p1049
tp1050
Rp1051
tp1052
a(I373
g2
(g6
S'y*\x7f>'
p1053
tp1054
Rp1055
tp1056
a(I196
g2
(g6
S'@#,>'
p1057
tp1058
Rp1059
tp1060
aa(lp1061
(I229
g2
(g6
S'\xa9Z\xec>'
p1062
tp1063
Rp1064
tp1065
a(I23
g2
(g6
S' VX>'
p1066
tp1067
Rp1068
tp1069
a(I219
g2
(g6
S'\xb2OR>'
p1070
tp1071
Rp1072
tp1073
aa(lp1074
(I274
g2
(g6
S'0\xfdQ>'
p1075
tp1076
Rp1077
tp1078
a(I72
g2
(g6
S'\xb5\x1eB>'
p1079
tp1080
Rp1081
tp1082
a(I178
g2
(g6
S'$\x182>'
p1083
tp1084
Rp1085
tp1086
aa(lp1087
(I5
g2
(g6
S'8\xec\xce>'
p1088
tp1089
Rp1090
tp1091
a(I9
g2
(g6
S'[\x92\x85>'
p1092
tp1093
Rp1094
tp1095
a(I18
g2
(g6
S'\xd0\x1c[>'
p1096
tp1097
Rp1098
tp1099
aa(lp1100
(I332
g2
(g6
S'\x10\x7f\x1c>'
p1101
tp1102
Rp1103
tp1104
a(I373
g2
(g6
S"*'\x0e>"
p1105
tp1106
Rp1107
tp1108
a(I40
g2
(g6
S'z\x05\n>'
p1109
tp1110
Rp1111
tp1112
aa(lp1113
(I268
g2
(g6
S'\xec\\W?'
p1114
tp1115
Rp1116
tp1117
a(I62
g2
(g6
S'\xceJ\x9b>'
p1118
tp1119
Rp1120
tp1121
a(I274
g2
(g6
S'@\x01k>'
p1122
tp1123
Rp1124
tp1125
aa(lp1126
(I211
g2
(g6
S'\xf0?\xc6>'
p1127
tp1128
Rp1129
tp1130
a(I158
g2
(g6
S'\xa4\xd0\xaa>'
p1131
tp1132
Rp1133
tp1134
a(I90
g2
(g6
S'\xfbC\xa8>'
p1135
tp1136
Rp1137
tp1138
aa(lp1139
(I169
g2
(g6
S'\x92\xcf\xb1>'
p1140
tp1141
Rp1142
tp1143
a(I13
g2
(g6
S'\xc0h\x8c>'
p1144
tp1145
Rp1146
tp1147
a(I153
g2
(g6
S'\x90\x04~>'
p1148
tp1149
Rp1150
tp1151
aa(lp1152
(I51
g2
(g6
S'\xb2C\x10>'
p1153
tp1154
Rp1155
tp1156
a(I167
g2
(g6
S'n\x08\x0b>'
p1157
tp1158
Rp1159
tp1160
a(I93
g2
(g6
S'!\x15\x04>'
p1161
tp1162
Rp1163
tp1164
aa(lp1165
(I368
g2
(g6
S'\xd9h$?'
p1166
tp1167
Rp1168
tp1169
a(I258
g2
(g6
S'q+\xba>'
p1170
tp1171
Rp1172
tp1173
a(I32
g2
(g6
S'\xd3bv>'
p1174
tp1175
Rp1176
tp1177
aa(lp1178
(I108
g2
(g6
S'\xce\x94\xf0>'
p1179
tp1180
Rp1181
tp1182
a(I193
g2
(g6
S'\x90\x03\xb4>'
p1183
tp1184
Rp1185
tp1186
a(I86
g2
(g6
S'\xfbC\xa8>'
p1187
tp1188
Rp1189
tp1190
aa(lp1191
(I128
g2
(g6
S'\x81\xf3\xe4>'
p1192
tp1193
Rp1194
tp1195
a(I47
g2
(g6
S'f\x17\x9c>'
p1196
tp1197
Rp1198
tp1199
a(I34
g2
(g6
S'/\xd3\x86>'
p1200
tp1201
Rp1202
tp1203
aa(lp1204
(I95
g2
(g6
S'\x89\x9e=>'
p1205
tp1206
Rp1207
tp1208
a(I210
g2
(g6
S'N\xfc2>'
p1209
tp1210
Rp1211
tp1212
a(I312
g2
(g6
S'3[+>'
p1213
tp1214
Rp1215
tp1216
aa(lp1217
(I20
g2
(g6
S'\xf4\x00\x90>'
p1218
tp1219
Rp1220
tp1221
a(I134
g2
(g6
S'.\\,>'
p1222
tp1223
Rp1224
tp1225
a(I169
g2
(g6
S'\x10?\x14>'
p1226
tp1227
Rp1228
tp1229
aa(lp1230
(I33
g2
(g6
S'\\\xa7\x9c>'
p1231
tp1232
Rp1233
tp1234
a(I225
g2
(g6
S'\xda\xf3_>'
p1235
tp1236
Rp1237
tp1238
a(I35
g2
(g6
S'\xd0\x8e5>'
p1239
tp1240
Rp1241
tp1242
aa(lp1243
(I387
g2
(g6
S'\xc4\xa7X>'
p1244
tp1245
Rp1246
tp1247
a(I92
g2
(g6
S'\x88\x9e=>'
p1248
tp1249
Rp1250
tp1251
a(I312
g2
(g6
S'M\xbe >'
p1252
tp1253
Rp1254
tp1255
aa(lp1256
(I151
g2
(g6
S'\x15\x80\xbf>'
p1257
tp1258
Rp1259
tp1260
a(I137
g2
(g6
S'\xd8T\x9d>'
p1261
tp1262
Rp1263
tp1264
a(I258
g2
(g6
S'6\x07\x9d>'
p1265
tp1266
Rp1267
tp1268
aa(lp1269
(I215
g2
(g6
S'Ru\xbd>'
p1270
tp1271
Rp1272
tp1273
a(I390
g2
(g6
S'\x87\xdcR>'
p1274
tp1275
Rp1276
tp1277
a(I201
g2
(g6
S'\xd9aL>'
p1278
tp1279
Rp1280
tp1281
aa(lp1282
(I309
g2
(g6
S'M\xc5\xa6>'
p1283
tp1284
Rp1285
tp1286
a(I215
g2
(g6
S'^\xdb\x9d>'
p1287
tp1288
Rp1289
tp1290
a(I373
g2
(g6
S'\xe6NH>'
p1291
tp1292
Rp1293
tp1294
aa(lp1295
(I28
g2
(g6
S'\xd6\x14\x8a>'
p1296
tp1297
Rp1298
tp1299
a(I22
g2
(g6
S'\xd4\xbcE>'
p1300
tp1301
Rp1302
tp1303
a(I276
g2
(g6
S'\xda59>'
p1304
tp1305
Rp1306
tp1307
aa(lp1308
(I376
g2
(g6
S'LF\xf8>'
p1309
tp1310
Rp1311
tp1312
a(I354
g2
(g6
S'0\xed\xba>'
p1313
tp1314
Rp1315
tp1316
a(I66
g2
(g6
S'P7\x9d>'
p1317
tp1318
Rp1319
tp1320
aa(lp1321
(I143
g2
(g6
S'`m\xc2>'
p1322
tp1323
Rp1324
tp1325
a(I255
g2
(g6
S'.z\x9b>'
p1326
tp1327
Rp1328
tp1329
a(I106
g2
(g6
S'\xfaR\x96>'
p1330
tp1331
Rp1332
tp1333
aa(lp1334
(I119
g2
(g6
S'a*\xa6>'
p1335
tp1336
Rp1337
tp1338
a(I356
g2
(g6
S'\xbe\xf4G>'
p1339
tp1340
Rp1341
tp1342
a(I209
g2
(g6
S'8J%>'
p1343
tp1344
Rp1345
tp1346
aa(lp1347
(I136
g2
(g6
S'*F\x0e?'
p1348
tp1349
Rp1350
tp1351
a(I306
g2
(g6
S'HB\xf8>'
p1352
tp1353
Rp1354
tp1355
a(I74
g2
(g6
S'\xb6\xfa5>'
p1356
tp1357
Rp1358
tp1359
aa(lp1360
(I230
g2
(g6
S'\xd1e\x9e>'
p1361
tp1362
Rp1363
tp1364
a(I105
g2
(g6
S'\xecz\x97>'
p1365
tp1366
Rp1367
tp1368
a(I290
g2
(g6
S'BX6>'
p1369
tp1370
Rp1371
tp1372
aa(lp1373
(I104
g2
(g6
S'\xecz\x97>'
p1374
tp1375
Rp1376
tp1377
a(I261
g2
(g6
S'\x81\xd6\x11>'
p1378
tp1379
Rp1380
tp1381
a(I364
g2
(g6
S'\x86\x86\x05>'
p1382
tp1383
Rp1384
tp1385
aa(lp1386
(I380
g2
(g6
S'\x9an\x9c>'
p1387
tp1388
Rp1389
tp1390
a(I101
g2
(g6
S'\xfaR\x96>'
p1391
tp1392
Rp1393
tp1394
a(I184
g2
(g6
S'\x12*R>'
p1395
tp1396
Rp1397
tp1398
aa(lp1399
(I14
g2
(g6
S'[\x92\x8c>'
p1400
tp1401
Rp1402
tp1403
a(I346
g2
(g6
S'hGz>'
p1404
tp1405
Rp1406
tp1407
a(I180
g2
(g6
S'\xd5\x88x>'
p1408
tp1409
Rp1410
tp1411
aa(lp1412
(I331
g2
(g6
S't\xee8?'
p1413
tp1414
Rp1415
tp1416
a(I305
g2
(g6
S'-04?'
p1417
tp1418
Rp1419
tp1420
a(I258
g2
(g6
S'\x83\xc4\xfb>'
p1421
tp1422
Rp1423
tp1424
aa(lp1425
(I24
g2
(g6
S'&\xf8\x0e>'
p1426
tp1427
Rp1428
tp1429
a(I59
g2
(g6
S'J\xa0\xe3='
p1430
tp1431
Rp1432
tp1433
a(I185
g2
(g6
S'T\x82\xdb='
p1434
tp1435
Rp1436
tp1437
aa(lp1438
(I189
g2
(g6
S'\x0eu\x85>'
p1439
tp1440
Rp1441
tp1442
a(I317
g2
(g6
S'A\x99[>'
p1443
tp1444
Rp1445
tp1446
a(I359
g2
(g6
S'\x980?>'
p1447
tp1448
Rp1449
tp1450
aa(lp1451
(I170
g2
(g6
S'T(\x8a>'
p1452
tp1453
Rp1454
tp1455
a(I234
g2
(g6
S"\xfa'T>"
p1456
tp1457
Rp1458
tp1459
a(I220
g2
(g6
S'\xadOI>'
p1460
tp1461
Rp1462
tp1463
aa(lp1464
(I4
g2
(g6
S'\xba\x14V?'
p1465
tp1466
Rp1467
tp1468
a(I353
g2
(g6
S'L\x040?'
p1469
tp1470
Rp1471
tp1472
a(I257
g2
(g6
S'\x88\x83\xd2>'
p1473
tp1474
Rp1475
tp1476
aa(lp1477
(I349
g2
(g6
S'V\x0f\xa1>'
p1478
tp1479
Rp1480
tp1481
a(I11
g2
(g6
S'\x08\x07;>'
p1482
tp1483
Rp1484
tp1485
a(I305
g2
(g6
S'\x92(\x1a>'
p1486
tp1487
Rp1488
tp1489
aa(lp1490
(I247
g2
(g6
S'\xae\xcd\x83>'
p1491
tp1492
Rp1493
tp1494
a(I169
g2
(g6
S'\x9d\x02`>'
p1495
tp1496
Rp1497
tp1498
a(I370
g2
(g6
S'?1D>'
p1499
tp1500
Rp1501
tp1502
aa(lp1503
(I172
g2
(g6
S'H\xfe\x81>'
p1504
tp1505
Rp1506
tp1507
a(I334
g2
(g6
S'\x9d\x80B>'
p1508
tp1509
Rp1510
tp1511
a(I32
g2
(g6
S'\xb1)3>'
p1512
tp1513
Rp1514
tp1515
aa(lp1516
(I262
g2
(g6
S'\xf8\x19\xd6>'
p1517
tp1518
Rp1519
tp1520
a(I269
g2
(g6
S'\xabN\x96>'
p1521
tp1522
Rp1523
tp1524
a(I53
g2
(g6
S'\xb2\x0f\x83>'
p1525
tp1526
Rp1527
tp1528
aa(lp1529
(I325
g2
(g6
S'sW\xf2>'
p1530
tp1531
Rp1532
tp1533
a(I57
g2
(g6
S'[\t\xb4>'
p1534
tp1535
Rp1536
tp1537
a(I380
g2
(g6
S'\x1e\x18\x92>'
p1538
tp1539
Rp1540
tp1541
aa(lp1542
(I29
g2
(g6
S'\xfc7H>'
p1543
tp1544
Rp1545
tp1546
a(I17
g2
(g6
S'T\xc5\x1e>'
p1547
tp1548
Rp1549
tp1550
a(I69
g2
(g6
S'\x86\x1a\x1a>'
p1551
tp1552
Rp1553
tp1554
aa(lp1555
(I102
g2
(g6
S'`*\xa6>'
p1556
tp1557
Rp1558
tp1559
a(I252
g2
(g6
S'\xc8$\x10>'
p1560
tp1561
Rp1562
tp1563
a(I349
g2
(g6
S':\x8c\xfb='
p1564
tp1565
Rp1566
tp1567
aa(lp1568
(I76
g2
(g6
S'P<6>'
p1569
tp1570
Rp1571
tp1572
a(I206
g2
(g6
S'\xc25+>'
p1573
tp1574
Rp1575
tp1576
a(I20
g2
(g6
S'\xe6\x7f">'
p1577
tp1578
Rp1579
tp1580
aa(lp1581
(I262
g2
(g6
S'\x95\x9c\xaf>'
p1582
tp1583
Rp1584
tp1585
a(I361
g2
(g6
S'/+\x96>'
p1586
tp1587
Rp1588
tp1589
a(I139
g2
(g6
S'\x90t}>'
p1590
tp1591
Rp1592
tp1593
aa(lp1594
(I174
g2
(g6
S'l\x15\x84>'
p1595
tp1596
Rp1597
tp1598
a(I202
g2
(g6
S'\x08\x06e>'
p1599
tp1600
Rp1601
tp1602
a(I213
g2
(g6
S'\x0e@O>'
p1603
tp1604
Rp1605
tp1606
aa(lp1607
(I357
g2
(g6
S'\xa0 \x89>'
p1608
tp1609
Rp1610
tp1611
a(I55
g2
(g6
S'H]\x83>'
p1612
tp1613
Rp1614
tp1615
a(I237
g2
(g6
S'H5L>'
p1616
tp1617
Rp1618
tp1619
aa(lp1620
(I171
g2
(g6
S'\x1c\xba\xb0>'
p1621
tp1622
Rp1623
tp1624
a(I166
g2
(g6
S'MB\xad>'
p1625
tp1626
Rp1627
tp1628
a(I39
g2
(g6
S'l\x9e\x9a>'
p1629
tp1630
Rp1631
tp1632
aa(lp1633
(I253
g2
(g6
S'\xfe\xdc\xa0>'
p1634
tp1635
Rp1636
tp1637
a(I147
g2
(g6
S'\x94C\x94>'
p1638
tp1639
Rp1640
tp1641
a(I48
g2
(g6
S'\xbcl\x8c>'
p1642
tp1643
Rp1644
tp1645
aa(lp1646
(I368
g2
(g6
S'z0\xab>'
p1647
tp1648
Rp1649
tp1650
a(I89
g2
(g6
S'd\xf5a>'
p1651
tp1652
Rp1653
tp1654
a(I9
g2
(g6
S'\xaa\x0c/>'
p1655
tp1656
Rp1657
tp1658
aa(lp1659
(I381
g2
(g6
S'r\x03\xb1>'
p1660
tp1661
Rp1662
tp1663
a(I237
g2
(g6
S'd#\xa0>'
p1664
tp1665
Rp1666
tp1667
a(I172
g2
(g6
S'\xe0Oi>'
p1668
tp1669
Rp1670
tp1671
aa(lp1672
(I91
g2
(g6
S'\x82\xf3\xe4>'
p1673
tp1674
Rp1675
tp1676
a(I229
g2
(g6
S'\x05\x19\xdc>'
p1677
tp1678
Rp1679
tp1680
a(I47
g2
(g6
S'n\xbb\xc2>'
p1681
tp1682
Rp1683
tp1684
aa(lp1685
(I376
g2
(g6
S'\tD\xe5>'
p1686
tp1687
Rp1688
tp1689
a(I291
g2
(g6
S'\xdd\xb6\xa3>'
p1690
tp1691
Rp1692
tp1693
a(I100
g2
(g6
S'Po\x9a>'
p1694
tp1695
Rp1696
tp1697
aa(lp1698
(I274
g2
(g6
S'Z\xaea>'
p1699
tp1700
Rp1701
tp1702
a(I282
g2
(g6
S'foa>'
p1703
tp1704
Rp1705
tp1706
a(I6
g2
(g6
S'x\xe7R>'
p1707
tp1708
Rp1709
tp1710
aa(lp1711
(I167
g2
(g6
S'\xb2\x17\xaa>'
p1712
tp1713
Rp1714
tp1715
a(I170
g2
(g6
S'\x92<\x89>'
p1716
tp1717
Rp1718
tp1719
a(I184
g2
(g6
S'\xde\xeb1>'
p1720
tp1721
Rp1722
tp1723
aa(lp1724
(I150
g2
(g6
S'nG\xd5>'
p1725
tp1726
Rp1727
tp1728
a(I142
g2
(g6
S'\x8c\xe2~>'
p1729
tp1730
Rp1731
tp1732
a(I163
g2
(g6
S'\rHP>'
p1733
tp1734
Rp1735
tp1736
aa(lp1737
(I265
g2
(g6
S'P\xda\x88>'
p1738
tp1739
Rp1740
tp1741
a(I149
g2
(g6
S'\x8e\xdei>'
p1742
tp1743
Rp1744
tp1745
a(I343
g2
(g6
S'\xfaM2>'
p1746
tp1747
Rp1748
tp1749
aa(lp1750
(I320
g2
(g6
S'v\xca\xa4>'
p1751
tp1752
Rp1753
tp1754
a(I153
g2
(g6
S'\xf2U\x89>'
p1755
tp1756
Rp1757
tp1758
a(I20
g2
(g6
S'\xf8\xdd\x88>'
p1759
tp1760
Rp1761
tp1762
aa(lp1763
(I270
g2
(g6
S'R\x1c\x03?'
p1764
tp1765
Rp1766
tp1767
a(I67
g2
(g6
S'a7\xb1>'
p1768
tp1769
Rp1770
tp1771
a(I307
g2
(g6
S'\x188\x84>'
p1772
tp1773
Rp1774
tp1775
aa(lp1776
(I103
g2
(g6
S'*F\x0e?'
p1777
tp1778
Rp1779
tp1780
a(I239
g2
(g6
S'NPz>'
p1781
tp1782
Rp1783
tp1784
a(I227
g2
(g6
S'\xbc\x02\xee='
p1785
tp1786
Rp1787
tp1788
aa(lp1789
(I19
g2
(g6
S'l{&?'
p1790
tp1791
Rp1792
tp1793
a(I96
g2
(g6
S'\xd8T\x9d>'
p1794
tp1795
Rp1796
tp1797
a(I251
g2
(g6
S'v\x18K>'
p1798
tp1799
Rp1800
tp1801
aa(lp1802
(I148
g2
(g6
S'\\\xb3\x96>'
p1803
tp1804
Rp1805
tp1806
a(I281
g2
(g6
S'3r\x8b>'
p1807
tp1808
Rp1809
tp1810
a(I284
g2
(g6
S'\x1c\xc0g>'
p1811
tp1812
Rp1813
tp1814
aa(lp1815
(I194
g2
(g6
S'\xb0\x97\x95>'
p1816
tp1817
Rp1818
tp1819
a(I397
g2
(g6
S'Z\x80\x8c>'
p1820
tp1821
Rp1822
tp1823
a(I121
g2
(g6
S'\x90t}>'
p1824
tp1825
Rp1826
tp1827
aa(lp1828
(I163
g2
(g6
S'\xb5\x1aZ>'
p1829
tp1830
Rp1831
tp1832
a(I263
g2
(g6
S'\x8f\xa6\x1f>'
p1833
tp1834
Rp1835
tp1836
a(I125
g2
(g6
S'\xd4\xc0\x1e>'
p1837
tp1838
Rp1839
tp1840
aa(lp1841
(I322
g2
(g6
S'\xb0\x91y>'
p1842
tp1843
Rp1844
tp1845
a(I49
g2
(g6
S'\x90\x97p>'
p1846
tp1847
Rp1848
tp1849
a(I69
g2
(g6
S'5wP>'
p1850
tp1851
Rp1852
tp1853
aa(lp1854
(I355
g2
(g6
S'\xe0?\xbc>'
p1855
tp1856
Rp1857
tp1858
a(I33
g2
(g6
S'\xf6\x94\xb7>'
p1859
tp1860
Rp1861
tp1862
a(I132
g2
(g6
S'\x8c\xe2~>'
p1863
tp1864
Rp1865
tp1866
aa(lp1867
(I343
g2
(g6
S'>\x05\n?'
p1868
tp1869
Rp1870
tp1871
a(I101
g2
(g6
S'`m\xc2>'
p1872
tp1873
Rp1874
tp1875
a(I263
g2
(g6
S'\xd6v\x8e>'
p1876
tp1877
Rp1878
tp1879
aa(lp1880
(I318
g2
(g6
S'\xd6X\x16?'
p1881
tp1882
Rp1883
tp1884
a(I329
g2
(g6
S',y\x11?'
p1885
tp1886
Rp1887
tp1888
a(I397
g2
(g6
S'\xeb\xa5\x10?'
p1889
tp1890
Rp1891
tp1892
aa(lp1893
(I222
g2
(g6
S'\x07z\x82>'
p1894
tp1895
Rp1896
tp1897
a(I26
g2
(g6
S'\x10\xcb;>'
p1898
tp1899
Rp1900
tp1901
a(I19
g2
(g6
S'\x8e\x878>'
p1902
tp1903
Rp1904
tp1905
aa(lp1906
(I368
g2
(g6
S'\x90\x11\x96>'
p1907
tp1908
Rp1909
tp1910
a(I327
g2
(g6
S'\xbc\x8f\x8b>'
p1911
tp1912
Rp1913
tp1914
a(I19
g2
(g6
S'\x18\x1c<>'
p1915
tp1916
Rp1917
tp1918
aa(lp1919
(I125
g2
(g6
S'\x93C\x94>'
p1920
tp1921
Rp1922
tp1923
a(I299
g2
(g6
S'\xe6xc>'
p1924
tp1925
Rp1926
tp1927
a(I183
g2
(g6
S'\x1e\x04)>'
p1928
tp1929
Rp1930
tp1931
aa(lp1932
(I138
g2
(g6
S'\\\xb3\x96>'
p1933
tp1934
Rp1935
tp1936
a(I361
g2
(g6
S'6\xc2l>'
p1937
tp1938
Rp1939
tp1940
a(I25
g2
(g6
S'\xd8\xcca>'
p1941
tp1942
Rp1943
tp1944
aa(lp1945
(I304
g2
(g6
S'\xcf\xd3\xd1>'
p1946
tp1947
Rp1948
tp1949
a(I347
g2
(g6
S'.\x0b}>'
p1950
tp1951
Rp1952
tp1953
a(I133
g2
(g6
S'\x8e\xdei>'
p1954
tp1955
Rp1956
tp1957
aa(lp1958
(I132
g2
(g6
S'nG\xd5>'
p1959
tp1960
Rp1961
tp1962
a(I259
g2
(g6
S'X;p>'
p1963
tp1964
Rp1965
tp1966
a(I177
g2
(g6
S'\xc2@l>'
p1967
tp1968
Rp1969
tp1970
aa(lp1971
(I96
g2
(g6
S'\x16\x80\xbf>'
p1972
tp1973
Rp1974
tp1975
a(I365
g2
(g6
S'\xd1f\x89>'
p1976
tp1977
Rp1978
tp1979
a(I397
g2
(g6
S'F\xd5\x87>'
p1980
tp1981
Rp1982
tp1983
aa(lp1984
(I321
g2
(g6
S'\xf0R\xb2>'
p1985
tp1986
Rp1987
tp1988
a(I226
g2
(g6
S'\x13\xdeh>'
p1989
tp1990
Rp1991
tp1992
a(I312
g2
(g6
S'\x07\xeaT>'
p1993
tp1994
Rp1995
tp1996
aa(lp1997
(I319
g2
(g6
S'\xceD\x0e?'
p1998
tp1999
Rp2000
tp2001
a(I169
g2
(g6
S'_L\x8f>'
p2002
tp2003
Rp2004
tp2005
a(I134
g2
(g6
S'\xf2U\x89>'
p2006
tp2007
Rp2008
tp2009
aa(lp2010
(I289
g2
(g6
S'&%\x94>'
p2011
tp2012
Rp2013
tp2014
a(I193
g2
(g6
S'\xa6\xa9\x81>'
p2015
tp2016
Rp2017
tp2018
a(I155
g2
(g6
S'U\xd3\x1a>'
p2019
tp2020
Rp2021
tp2022
aa(lp2023
(I53
g2
(g6
S'Y\x8f\x81>'
p2024
tp2025
Rp2026
tp2027
a(I57
g2
(g6
S'N\x8c\x7f>'
p2028
tp2029
Rp2030
tp2031
a(I353
g2
(g6
S'\x8a11>'
p2032
tp2033
Rp2034
tp2035
aa(lp2036
(I393
g2
(g6
S'\xdc\xcc\xa4>'
p2037
tp2038
Rp2039
tp2040
a(I28
g2
(g6
S'\x98\xa5\xa1>'
p2041
tp2042
Rp2043
tp2044
a(I262
g2
(g6
S'{\xd8\x8b>'
p2045
tp2046
Rp2047
tp2048
aa(lp2049
(I196
g2
(g6
S'F\x88\xc2>'
p2050
tp2051
Rp2052
tp2053
a(I377
g2
(g6
S'[\x12\x9e>'
p2054
tp2055
Rp2056
tp2057
a(I312
g2
(g6
S'-(\x92>'
p2058
tp2059
Rp2060
tp2061
aa(lp2062
(I318
g2
(g6
S'\xc1\x7f\x0f?'
p2063
tp2064
Rp2065
tp2066
a(I329
g2
(g6
S'J\x0b\xfd>'
p2067
tp2068
Rp2069
tp2070
a(I208
g2
(g6
S'\xf7\x8f\xef>'
p2071
tp2072
Rp2073
tp2074
aa(lp2075
(I359
g2
(g6
S"z'\xa7>"
p2076
tp2077
Rp2078
tp2079
a(I29
g2
(g6
S"\\'Y>"
p2080
tp2081
Rp2082
tp2083
a(I196
g2
(g6
S'\x99\x80E>'
p2084
tp2085
Rp2086
tp2087
aa(lp2088
(I310
g2
(g6
S'#2\xa4>'
p2089
tp2090
Rp2091
tp2092
a(I328
g2
(g6
S'&>\x82>'
p2093
tp2094
Rp2095
tp2096
a(I248
g2
(g6
S'\xc8\x86Q>'
p2097
tp2098
Rp2099
tp2100
aa(lp2101
(I336
g2
(g6
S'\xbfBD?'
p2102
tp2103
Rp2104
tp2105
a(I330
g2
(g6
S'\x06X\x9f>'
p2106
tp2107
Rp2108
tp2109
a(I261
g2
(g6
S':\xea\x90>'
p2110
tp2111
Rp2112
tp2113
aa(lp2114
(I116
g2
(g6
S'\x83\xc2}>'
p2115
tp2116
Rp2117
tp2118
a(I24
g2
(g6
S'\xbc\x11P>'
p2119
tp2120
Rp2121
tp2122
a(I280
g2
(g6
S'\xd8%">'
p2123
tp2124
Rp2125
tp2126
aa(lp2127
(I192
g2
(g6
S'\x17u\xb8>'
p2128
tp2129
Rp2130
tp2131
a(I329
g2
(g6
S'\xba\xd6\x83>'
p2132
tp2133
Rp2134
tp2135
a(I140
g2
(g6
S'\xb4\x1aZ>'
p2136
tp2137
Rp2138
tp2139
aa(lp2140
(I206
g2
(g6
S'Pq\x81>'
p2141
tp2142
Rp2143
tp2144
a(I235
g2
(g6
S'69e>'
p2145
tp2146
Rp2147
tp2148
a(I309
g2
(g6
S'JN2>'
p2149
tp2150
Rp2151
tp2152
aa(lp2153
(I373
g2
(g6
S'\x9cQ\x1e>'
p2154
tp2155
Rp2156
tp2157
a(I26
g2
(g6
S'RS\x12>'
p2158
tp2159
Rp2160
tp2161
a(I376
g2
(g6
S'Z\x13\xf9='
p2162
tp2163
Rp2164
tp2165
aa(lp2166
(I171
g2
(g6
S'T\xb6\x03?'
p2167
tp2168
Rp2169
tp2170
a(I320
g2
(g6
S'\xe8\xa8\xbb>'
p2171
tp2172
Rp2173
tp2174
a(I124
g2
(g6
S'LB\xad>'
p2175
tp2176
Rp2177
tp2178
aa(lp2179
(I395
g2
(g6
S'=\xa1\xb7>'
p2180
tp2181
Rp2182
tp2183
a(I131
g2
(g6
S'\xb2\x17\xaa>'
p2184
tp2185
Rp2186
tp2187
a(I376
g2
(g6
S'\x9c\xbb\x9d>'
p2188
tp2189
Rp2190
tp2191
aa(lp2192
(I177
g2
(g6
S'\x0eI\t?'
p2193
tp2194
Rp2195
tp2196
a(I56
g2
(g6
S'*\xefs>'
p2197
tp2198
Rp2199
tp2200
a(I196
g2
(g6
S'\xb4\x925>'
p2201
tp2202
Rp2203
tp2204
aa(lp2205
(I359
g2
(g6
S'3\xd7\xca>'
p2206
tp2207
Rp2208
tp2209
a(I30
g2
(g6
S'\xa6\xed\xb8>'
p2210
tp2211
Rp2212
tp2213
a(I87
g2
(g6
S'\x91\xcf\xb1>'
p2214
tp2215
Rp2216
tp2217
aa(lp2218
(I11
g2
(g6
S'~\x90\xac>'
p2219
tp2220
Rp2221
tp2222
a(I41
g2
(g6
S'\xca\x1d\x9d>'
p2223
tp2224
Rp2225
tp2226
a(I111
g2
(g6
S'T(\x8a>'
p2227
tp2228
Rp2229
tp2230
aa(lp2231
(I166
g2
(g6
S'T\xb6\x03?'
p2232
tp2233
Rp2234
tp2235
a(I124
g2
(g6
S'\x1c\xba\xb0>'
p2236
tp2237
Rp2238
tp2239
a(I38
g2
(g6
S'\x02\xedw>'
p2240
tp2241
Rp2242
tp2243
aa(lp2244
(I351
g2
(g6
S'<\x91\xa3>'
p2245
tp2246
Rp2247
tp2248
a(I115
g2
(g6
S'H\xfe\x81>'
p2249
tp2250
Rp2251
tp2252
a(I127
g2
(g6
S'\xdfOi>'
p2253
tp2254
Rp2255
tp2256
aa(lp2257
(I332
g2
(g6
S'Z\x1a\x9a>'
p2258
tp2259
Rp2260
tp2261
a(I226
g2
(g6
S'\xb1\x11q>'
p2262
tp2263
Rp2264
tp2265
a(I194
g2
(g6
S'\xe0~ >'
p2266
tp2267
Rp2268
tp2269
aa(lp2270
(I204
g2
(g6
S'\x97\xa4\x01?'
p2271
tp2272
Rp2273
tp2274
a(I122
g2
(g6
S'l\x15\x84>'
p2275
tp2276
Rp2277
tp2278
a(I116
g2
(g6
S'kUn>'
p2279
tp2280
Rp2281
tp2282
aa(lp2283
(I244
g2
(g6
S'\x16LK>'
p2284
tp2285
Rp2286
tp2287
a(I265
g2
(g6
S'B\xa1I>'
p2288
tp2289
Rp2290
tp2291
a(I217
g2
(g6
S'C\xa8H>'
p2292
tp2293
Rp2294
tp2295
aa(lp2296
(I42
g2
(g6
S'n\xd5\xda>'
p2297
tp2298
Rp2299
tp2300
a(I269
g2
(g6
S'\xec\xc2\x8e>'
p2301
tp2302
Rp2303
tp2304
a(I309
g2
(g6
S'\xcc.\x8e>'
p2305
tp2306
Rp2307
tp2308
aa(lp2309
(I168
g2
(g6
S'\x0eI\t?'
p2310
tp2311
Rp2312
tp2313
a(I358
g2
(g6
S'/,o>'
p2314
tp2315
Rp2316
tp2317
a(I150
g2
(g6
S'\xc2@l>'
p2318
tp2319
Rp2320
tp2321
aa(lp2322
(I393
g2
(g6
S'V\xca\xc7>'
p2323
tp2324
Rp2325
tp2326
a(I71
g2
(g6
S' c\x80>'
p2327
tp2328
Rp2329
tp2330
a(I91
g2
(g6
S'\x0e\x85|>'
p2331
tp2332
Rp2333
tp2334
aa(lp2335
(I333
g2
(g6
S'\xd6\xc3\x0c?'
p2336
tp2337
Rp2338
tp2339
a(I198
g2
(g6
S'a\xa0\xa2>'
p2340
tp2341
Rp2342
tp2343
a(I212
g2
(g6
S'l\xf67>'
p2344
tp2345
Rp2346
tp2347
aa(lp2348
(I107
g2
(g6
S'\xd7\x88x>'
p2349
tp2350
Rp2351
tp2352
a(I349
g2
(g6
S'\xb8gL>'
p2353
tp2354
Rp2355
tp2356
a(I324
g2
(g6
S'\xb8\x12K>'
p2357
tp2358
Rp2359
tp2360
aa(lp2361
(I317
g2
(g6
S'E&f>'
p2362
tp2363
Rp2364
tp2365
a(I295
g2
(g6
S' dS>'
p2366
tp2367
Rp2368
tp2369
a(I318
g2
(g6
S'rG2>'
p2370
tp2371
Rp2372
tp2373
aa(lp2374
(I274
g2
(g6
S'\x9f\x11R>'
p2375
tp2376
Rp2377
tp2378
a(I48
g2
(g6
S'l\xf9)>'
p2379
tp2380
Rp2381
tp2382
a(I151
g2
(g6
S'\xd2\xcd\x15>'
p2383
tp2384
Rp2385
tp2386
aa(lp2387
(I147
g2
(g6
S'\x1e\x04)>'
p2388
tp2389
Rp2390
tp2391
a(I151
g2
(g6
S'Y3\x1f>'
p2392
tp2393
Rp2394
tp2395
a(I96
g2
(g6
S'_\r\x10>'
p2396
tp2397
Rp2398
tp2399
aa(lp2400
(I230
g2
(g6
S'\xcb\x90\xe8>'
p2401
tp2402
Rp2403
tp2404
a(I225
g2
(g6
S'\xfd\xb1\xcf>'
p2405
tp2406
Rp2407
tp2408
a(I41
g2
(g6
S'\x86w\xac>'
p2409
tp2410
Rp2411
tp2412
aa(lp2413
(I389
g2
(g6
S'\xdc\n ?'
p2414
tp2415
Rp2416
tp2417
a(I10
g2
(g6
S'\xd2\xab\x1f?'
p2418
tp2419
Rp2420
tp2421
a(I284
g2
(g6
S'6}\xd8>'
p2422
tp2423
Rp2424
tp2425
aa(lp2426
(I297
g2
(g6
S'Z.P?'
p2427
tp2428
Rp2429
tp2430
a(I377
g2
(g6
S'\xc0P\xa0>'
p2431
tp2432
Rp2433
tp2434
a(I53
g2
(g6
S'\xfc\x9a+>'
p2435
tp2436
Rp2437
tp2438
aa(lp2439
(I64
g2
(g6
S'R\xa0\x82>'
p2440
tp2441
Rp2442
tp2443
a(I300
g2
(g6
S'D\x15w>'
p2444
tp2445
Rp2446
tp2447
a(I370
g2
(g6
S'g3M>'
p2448
tp2449
Rp2450
tp2451
aa(lp2452
(I220
g2
(g6
S'\\\x01\x98>'
p2453
tp2454
Rp2455
tp2456
a(I161
g2
(g6
S'\xe5\xc2/>'
p2457
tp2458
Rp2459
tp2460
a(I330
g2
(g6
S'@\x0e.>'
p2461
tp2462
Rp2463
tp2464
aa(lp2465
(I317
g2
(g6
S'R\x18\xe6>'
p2466
tp2467
Rp2468
tp2469
a(I110
g2
(g6
S'\x0eu\x85>'
p2470
tp2471
Rp2472
tp2473
a(I187
g2
(g6
S'\x08J!>'
p2474
tp2475
Rp2476
tp2477
aa(lp2478
(I391
g2
(g6
S'0ks>'
p2479
tp2480
Rp2481
tp2482
a(I346
g2
(g6
S'+\x8b\x00>'
p2483
tp2484
Rp2485
tp2486
a(I80
g2
(g6
S'$r\xf0='
p2487
tp2488
Rp2489
tp2490
aa(lp2491
(I224
g2
(g6
S'\xf4\x08M?'
p2492
tp2493
Rp2494
tp2495
a(I295
g2
(g6
S'\xdc\x1c\xce>'
p2496
tp2497
Rp2498
tp2499
a(I67
g2
(g6
S'\x82\x00\xc4>'
p2500
tp2501
Rp2502
tp2503
aa(lp2504
(I163
g2
(g6
S'\x17u\xb8>'
p2505
tp2506
Rp2507
tp2508
a(I371
g2
(g6
S'CD\x86>'
p2509
tp2510
Rp2511
tp2512
a(I298
g2
(g6
S'b\xda`>'
p2513
tp2514
Rp2515
tp2516
aa(lp2517
(I90
g2
(g6
S'\x8e\x03\xb4>'
p2518
tp2519
Rp2520
tp2521
a(I154
g2
(g6
S'\xa6\xa9\x81>'
p2522
tp2523
Rp2524
tp2525
a(I36
g2
(g6
S'\x17\xb9\x80>'
p2526
tp2527
Rp2528
tp2529
aa(lp2530
(I311
g2
(g6
S'\xf4\xf3\xbe>'
p2531
tp2532
Rp2533
tp2534
a(I139
g2
(g6
S'\xb0\x97\x95>'
p2535
tp2536
Rp2537
tp2538
a(I318
g2
(g6
S'P\xaa\x85>'
p2539
tp2540
Rp2541
tp2542
aa(lp2543
(I212
g2
(g6
S'\xe2x\xd9>'
p2544
tp2545
Rp2546
tp2547
a(I230
g2
(g6
S'J\xb0\x99>'
p2548
tp2549
Rp2550
tp2551
a(I187
g2
(g6
S'|A(>'
p2552
tp2553
Rp2554
tp2555
aa(lp2556
(I157
g2
(g6
S'F\x88\xc2>'
p2557
tp2558
Rp2559
tp2560
a(I394
g2
(g6
S'\xe8}\xb5>'
p2561
tp2562
Rp2563
tp2564
a(I296
g2
(g6
S'\x87\xb9\x8f>'
p2565
tp2566
Rp2567
tp2568
aa(lp2569
(I342
g2
(g6
S'\xc6\xb4h>'
p2570
tp2571
Rp2572
tp2573
a(I304
g2
(g6
S'P\xd6\x0e>'
p2574
tp2575
Rp2576
tp2577
a(I235
g2
(g6
S'\x13\xfb\x07>'
p2578
tp2579
Rp2580
tp2581
aa(lp2582
(I179
g2
(g6
S'`\xa0\xa2>'
p2583
tp2584
Rp2585
tp2586
a(I333
g2
(g6
S'\xb4\x97\x81>'
p2587
tp2588
Rp2589
tp2590
a(I199
g2
(g6
S'\x13\x7fL>'
p2591
tp2592
Rp2593
tp2594
aa(lp2595
(I198
g2
(g6
S'\x13\x7fL>'
p2596
tp2597
Rp2598
tp2599
a(I392
g2
(g6
S'\xd2`I>'
p2600
tp2601
Rp2602
tp2603
a(I176
g2
(g6
S'^\xd6$>'
p2604
tp2605
Rp2606
tp2607
aa(lp2608
(I164
g2
(g6
S'\x14a.>'
p2609
tp2610
Rp2611
tp2612
a(I368
g2
(g6
S'\xf4\xc3%>'
p2613
tp2614
Rp2615
tp2616
a(I258
g2
(g6
S'\x8a\xb3\x06>'
p2617
tp2618
Rp2619
tp2620
aa(lp2621
(I247
g2
(g6
S'i\xb1y>'
p2622
tp2623
Rp2624
tp2625
a(I97
g2
(g6
S'\xd9aL>'
p2626
tp2627
Rp2628
tp2629
a(I121
g2
(g6
S'c\x19:>'
p2630
tp2631
Rp2632
tp2633
aa(lp2634
(I257
g2
(g6
S'$R5?'
p2635
tp2636
Rp2637
tp2638
a(I122
g2
(g6
S'\x08\x06e>'
p2639
tp2640
Rp2641
tp2642
a(I50
g2
(g6
S'\x1eoD>'
p2643
tp2644
Rp2645
tp2646
aa(lp2647
(I3
g2
(g6
S'V\x8d\x80>'
p2648
tp2649
Rp2650
tp2651
a(I226
g2
(g6
S'\x12Be>'
p2652
tp2653
Rp2654
tp2655
a(I62
g2
(g6
S'6\xb4)>'
p2656
tp2657
Rp2658
tp2659
aa(lp2660
(I174
g2
(g6
S'\x98\xa4\x01?'
p2661
tp2662
Rp2663
tp2664
a(I358
g2
(g6
S'\xa4\xcan>'
p2665
tp2666
Rp2667
tp2668
a(I352
g2
(g6
S'\xbe\x03`>'
p2669
tp2670
Rp2671
tp2672
aa(lp2673
(I71
g2
(g6
S'\xc0W\xf4>'
p2674
tp2675
Rp2676
tp2677
a(I352
g2
(g6
S',\xafz>'
p2678
tp2679
Rp2680
tp2681
a(I287
g2
(g6
S'\xbeVG>'
p2682
tp2683
Rp2684
tp2685
aa(lp2686
(I164
g2
(g6
S'Pq\x81>'
p2687
tp2688
Rp2689
tp2690
a(I193
g2
(g6
S'\x8b\x9ca>'
p2691
tp2692
Rp2693
tp2694
a(I120
g2
(g6
S'\xc15+>'
p2695
tp2696
Rp2697
tp2698
aa(lp2699
(I251
g2
(g6
S'\x96\xf2\xc1>'
p2700
tp2701
Rp2702
tp2703
a(I78
g2
(g6
S'k\xb5\xbc>'
p2704
tp2705
Rp2706
tp2707
a(I325
g2
(g6
S"\xc0'z>"
p2708
tp2709
Rp2710
tp2711
aa(lp2712
(I158
g2
(g6
S'\xf7\x8f\xef>'
p2713
tp2714
Rp2715
tp2716
a(I329
g2
(g6
S'TE\xdf>'
p2717
tp2718
Rp2719
tp2720
a(I318
g2
(g6
S'VT\xc9>'
p2721
tp2722
Rp2723
tp2724
aa(lp2725
(I381
g2
(g6
S'\xa2\x10\xa0>'
p2726
tp2727
Rp2728
tp2729
a(I208
g2
(g6
S'\x06\xc3\x8d>'
p2730
tp2731
Rp2732
tp2733
a(I329
g2
(g6
S'\x98\xd3U>'
p2734
tp2735
Rp2736
tp2737
aa(lp2738
(I375
g2
(g6
S'L\xbdW>'
p2739
tp2740
Rp2741
tp2742
a(I75
g2
(g6
S'\xb1\xcd=>'
p2743
tp2744
Rp2745
tp2746
a(I92
g2
(g6
S'N\xfc2>'
p2747
tp2748
Rp2749
tp2750
aa(lp2751
(I12
g2
(g6
S')\x88\x00?'
p2752
tp2753
Rp2754
tp2755
a(I299
g2
(g6
S'\x92\xe8\xe1>'
p2756
tp2757
Rp2758
tp2759
a(I86
g2
(g6
S'\xf0?\xc6>'
p2760
tp2761
Rp2762
tp2763
aa(lp2764
(I195
g2
(g6
S'\xe2x\xd9>'
p2765
tp2766
Rp2767
tp2768
a(I130
g2
(g6
S'\xb6\xe6J>'
p2769
tp2770
Rp2771
tp2772
a(I230
g2
(g6
S'\xb4(J>'
p2773
tp2774
Rp2775
tp2776
aa(lp2777
(I172
g2
(g6
S'v4Q>'
p2778
tp2779
Rp2780
tp2781
a(I122
g2
(g6
S'\x0f@O>'
p2782
tp2783
Rp2784
tp2785
a(I375
g2
(g6
S'\x08\xe0K>'
p2786
tp2787
Rp2788
tp2789
aa(lp2790
(I127
g2
(g6
S'*\xcb->'
p2791
tp2792
Rp2793
tp2794
a(I79
g2
(g6
S'Uo\x18>'
p2795
tp2796
Rp2797
tp2798
a(I25
g2
(g6
S'\xee4\x14>'
p2799
tp2800
Rp2801
tp2802
aa(lp2803
(I63
g2
(g6
S't]\xee>'
p2804
tp2805
Rp2806
tp2807
a(I97
g2
(g6
S'Ru\xbd>'
p2808
tp2809
Rp2810
tp2811
a(I80
g2
(g6
S'\x16\xbc\xa6>'
p2812
tp2813
Rp2814
tp2815
aa(lp2816
(I157
g2
(g6
S'\xf2&y>'
p2817
tp2818
Rp2819
tp2820
a(I28
g2
(g6
S'\x1d!^>'
p2821
tp2822
Rp2823
tp2824
a(I361
g2
(g6
S'\xe4-L>'
p2825
tp2826
Rp2827
tp2828
aa(lp2829
(I327
g2
(g6
S'm\xa8\xc3>'
p2830
tp2831
Rp2832
tp2833
a(I389
g2
(g6
S'\xa9\xbf\x90>'
p2834
tp2835
Rp2836
tp2837
a(I175
g2
(g6
S'D\xa8H>'
p2838
tp2839
Rp2840
tp2841
aa(lp2842
(I39
g2
(g6
S'\xca\x8bJ>'
p2843
tp2844
Rp2845
tp2846
a(I24
g2
(g6
S'\x18\xac4>'
p2847
tp2848
Rp2849
tp2850
a(I148
g2
(g6
S'Rg\x0f>'
p2851
tp2852
Rp2853
tp2854
aa(lp2855
(I139
g2
(g6
S'p\xbfn>'
p2856
tp2857
Rp2858
tp2859
a(I81
g2
(g6
S'\xb4OR>'
p2860
tp2861
Rp2862
tp2863
a(I217
g2
(g6
S'\xa0:\x15>'
p2864
tp2865
Rp2866
tp2867
aa(lp2868
(I375
g2
(g6
S'\xd2\x01\xa3>'
p2869
tp2870
Rp2871
tp2872
a(I188
g2
(g6
S'\\\x01\x98>'
p2873
tp2874
Rp2875
tp2876
a(I75
g2
(g6
S'\xa1\xd9S>'
p2877
tp2878
Rp2879
tp2880
aa(lp2881
(I278
g2
(g6
S'J\xdfF?'
p2882
tp2883
Rp2884
tp2885
a(I12
g2
(g6
S'X\x8f\xdb>'
p2886
tp2887
Rp2888
tp2889
a(I259
g2
(g6
S'\xa4$\xb8>'
p2890
tp2891
Rp2892
tp2893
aa(lp2894
(I145
g2
(g6
S'\x07z\x82>'
p2895
tp2896
Rp2897
tp2898
a(I223
g2
(g6
S'\xde%\x1e>'
p2899
tp2900
Rp2901
tp2902
a(I360
g2
(g6
S'\x9a\xe3\x14>'
p2903
tp2904
Rp2905
tp2906
aa(lp2907
(I71
g2
(g6
S'\xe7%\xf5>'
p2908
tp2909
Rp2910
tp2911
a(I316
g2
(g6
S'M\xfek>'
p2912
tp2913
Rp2914
tp2915
a(I58
g2
(g6
S'z\xeaW>'
p2916
tp2917
Rp2918
tp2919
aa(lp2920
(I191
g2
(g6
S'\xf4\x08M?'
p2921
tp2922
Rp2923
tp2924
a(I67
g2
(g6
S'.\xef\xd9>'
p2925
tp2926
Rp2927
tp2928
a(I163
g2
(g6
S'Le0>'
p2929
tp2930
Rp2931
tp2932
aa(lp2933
(I230
g2
(g6
S'v\xa3\xf6>'
p2934
tp2935
Rp2936
tp2937
a(I184
g2
(g6
S'\xfe\xb1\xcf>'
p2938
tp2939
Rp2940
tp2941
a(I94
g2
(g6
S'\xda\xf3_>'
p2942
tp2943
Rp2944
tp2945
aa(lp2946
(I321
g2
(g6
S'\xb0k\x07?'
p2947
tp2948
Rp2949
tp2950
a(I173
g2
(g6
S'\xb2\x11q>'
p2951
tp2952
Rp2953
tp2954
a(I152
g2
(g6
S'\x14\xdeh>'
p2955
tp2956
Rp2957
tp2958
aa(lp2959
(I370
g2
(g6
S'\xafv6>'
p2960
tp2961
Rp2962
tp2963
a(I275
g2
(g6
S'\xd4\xcf\x10>'
p2964
tp2965
Rp2966
tp2967
a(I83
g2
(g6
S'h\xb8\n>'
p2968
tp2969
Rp2970
tp2971
aa(lp2972
(I15
g2
(g6
S'\xfe\xadS>'
p2973
tp2974
Rp2975
tp2976
a(I337
g2
(g6
S'i\x07O>'
p2977
tp2978
Rp2979
tp2980
a(I26
g2
(g6
S'\xad&>>'
p2981
tp2982
Rp2983
tp2984
aa(lp2985
(I81
g2
(g6
S'\xa9Z\xec>'
p2986
tp2987
Rp2988
tp2989
a(I128
g2
(g6
S'\x06\x19\xdc>'
p2990
tp2991
Rp2992
tp2993
a(I194
g2
(g6
S'h-J>'
p2994
tp2995
Rp2996
tp2997
aa(lp2998
(I225
g2
(g6
S'v\xa3\xf6>'
p2999
tp3000
Rp3001
tp3002
a(I184
g2
(g6
S'\xcb\x90\xe8>'
p3003
tp3004
Rp3005
tp3006
a(I104
g2
(g6
S'\xd0e\x9e>'
p3007
tp3008
Rp3009
tp3010
aa(lp3011
(I322
g2
(g6
S'\xa4\x04S>'
p3012
tp3013
Rp3014
tp3015
a(I123
g2
(g6
S'\xd6:%>'
p3016
tp3017
Rp3018
tp3019
a(I154
g2
(g6
S'\x9a\xc6\xf6='
p3020
tp3021
Rp3022
tp3023
aa(lp3024
(I365
g2
(g6
S'\xd5$n>'
p3025
tp3026
Rp3027
tp3028
a(I362
g2
(g6
S'\xa8_Q>'
p3029
tp3030
Rp3031
tp3032
a(I372
g2
(g6
S'iG0>'
p3033
tp3034
Rp3035
tp3036
aa(lp3037
(I359
g2
(g6
S'\xea\xf8\x89>'
p3038
tp3039
Rp3040
tp3041
a(I363
g2
(g6
S'x k>'
p3042
tp3043
Rp3044
tp3045
a(I244
g2
(g6
S'\x8c\x90f>'
p3046
tp3047
Rp3048
tp3049
aa(lp3050
(I28
g2
(g6
S'N\xfd\x91>'
p3051
tp3052
Rp3053
tp3054
a(I269
g2
(g6
S'\xc6$\x8c>'
p3055
tp3056
Rp3057
tp3058
a(I111
g2
(g6
S"\xfb'T>"
p3059
tp3060
Rp3061
tp3062
aa(lp3063
(I355
g2
(g6
S'\xd64\x95>'
p3064
tp3065
Rp3066
tp3067
a(I309
g2
(g6
S'\xb2B\x81>'
p3068
tp3069
Rp3070
tp3071
a(I164
g2
(g6
S'69e>'
p3072
tp3073
Rp3074
tp3075
aa(lp3076
(I281
g2
(g6
S'\x04\x13"?'
p3077
tp3078
Rp3079
tp3080
a(I346
g2
(g6
S'|Z[>'
p3081
tp3082
Rp3083
tp3084
a(I340
g2
(g6
S')\xaf+>'
p3085
tp3086
Rp3087
tp3088
aa(lp3089
(I294
g2
(g6
S'W\xfa\xf1>'
p3090
tp3091
Rp3092
tp3093
a(I127
g2
(g6
S'b#\xa0>'
p3094
tp3095
Rp3096
tp3097
a(I123
g2
(g6
S'F5L>'
p3098
tp3099
Rp3100
tp3101
aa(lp3102
(I63
g2
(g6
S'\xf3\xf23>'
p3103
tp3104
Rp3105
tp3106
a(I162
g2
(g6
S'\x1aH\x04>'
p3107
tp3108
Rp3109
tp3110
a(I32
g2
(g6
S'\x83\xcf\xf7='
p3111
tp3112
Rp3113
tp3114
aa(lp3115
(I136
g2
(g6
S'OPz>'
p3116
tp3117
Rp3118
tp3119
a(I207
g2
(g6
S'\x18\xaaZ>'
p3120
tp3121
Rp3122
tp3123
a(I91
g2
(g6
S're >'
p3124
tp3125
Rp3126
tp3127
aa(lp3128
(I286
g2
(g6
S'\xd8\xa4\x9c>'
p3129
tp3130
Rp3131
tp3132
a(I380
g2
(g6
S'\xfb\x13C>'
p3133
tp3134
Rp3135
tp3136
a(I60
g2
(g6
S'Y\x05+>'
p3137
tp3138
Rp3139
tp3140
aa(lp3141
(I396
g2
(g6
S'qjj?'
p3142
tp3143
Rp3144
tp3145
a(I185
g2
(g6
S'v\x92?>'
p3146
tp3147
Rp3148
tp3149
a(I386
g2
(g6
S'\x0en/>'
p3150
tp3151
Rp3152
tp3153
aa(lp3154
(I47
g2
(g6
S'_\xf1\xe9='
p3155
tp3156
Rp3157
tp3158
a(I18
g2
(g6
S'ZO\xe8='
p3159
tp3160
Rp3161
tp3162
a(I195
g2
(g6
S'\xc4\x02\xe4='
p3163
tp3164
Rp3165
tp3166
aa(lp3167
(I25
g2
(g6
S'\xf4\xa8\x8c>'
p3168
tp3169
Rp3170
tp3171
a(I281
g2
(g6
S'\xbdjI>'
p3172
tp3173
Rp3174
tp3175
a(I93
g2
(g6
S'\x12\xc4\xfc='
p3176
tp3177
Rp3178
tp3179
aa(lp3180
(I262
g2
(g6
S'\xf6\x03\xdf>'
p3181
tp3182
Rp3183
tp3184
a(I62
g2
(g6
S'\x02\xbds>'
p3185
tp3186
Rp3187
tp3188
a(I233
g2
(g6
S'\x8c\x90f>'
p3189
tp3190
Rp3191
tp3192
aa(lp3193
(I77
g2
(g6
S',\x8cf>'
p3194
tp3195
Rp3196
tp3197
a(I304
g2
(g6
S'\x1aHW>'
p3198
tp3199
Rp3200
tp3201
a(I347
g2
(g6
S'\xa7RP>'
p3202
tp3203
Rp3204
tp3205
aa(lp3206
(I309
g2
(g6
S'\xc2*m>'
p3207
tp3208
Rp3209
tp3210
a(I287
g2
(g6
S'U)i>'
p3211
tp3212
Rp3213
tp3214
a(I132
g2
(g6
S'G\xe2/>'
p3215
tp3216
Rp3217
tp3218
aa(lp3219
(I114
g2
(g6
S'\xae\xcd\x83>'
p3220
tp3221
Rp3222
tp3223
a(I201
g2
(g6
S'j\xb1y>'
p3224
tp3225
Rp3226
tp3227
a(I123
g2
(g6
S'\x80\x02G>'
p3228
tp3229
Rp3230
tp3231
aa(lp3232
(I271
g2
(g6
S'\x7f\xb0\x1e?'
p3233
tp3234
Rp3235
tp3236
a(I364
g2
(g6
S'mMb>'
p3237
tp3238
Rp3239
tp3240
a(I160
g2
(g6
S'\xca\x86Q>'
p3241
tp3242
Rp3243
tp3244
aa(lp3245
(I322
g2
(g6
S't\xca\xdd>'
p3246
tp3247
Rp3248
tp3249
a(I285
g2
(g6
S'\xe6nk>'
p3250
tp3251
Rp3252
tp3253
a(I298
g2
(g6
S'\xb7\x94[>'
p3254
tp3255
Rp3256
tp3257
aa(lp3258
(I10
g2
(g6
S'\x1c\xcb\x95>'
p3259
tp3260
Rp3261
tp3262
a(I138
g2
(g6
S'\xb9\xddB>'
p3263
tp3264
Rp3265
tp3266
a(I389
g2
(g6
S'\x7f\xca=>'
p3267
tp3268
Rp3269
tp3270
aa(lp3271
(I207
g2
(g6
S'\x96\xf2\xc1>'
p3272
tp3273
Rp3274
tp3275
a(I263
g2
(g6
S'\x16@\xa5>'
p3276
tp3277
Rp3278
tp3279
a(I18
g2
(g6
S'#G\x9c>'
p3280
tp3281
Rp3282
tp3283
aa(lp3284
(I77
g2
(g6
S'u\x8a]>'
p3285
tp3286
Rp3287
tp3288
a(I134
g2
(g6
S'\xf2=?>'
p3289
tp3290
Rp3291
tp3292
a(I228
g2
(g6
S'\xcc\xe2\x11>'
p3293
tp3294
Rp3295
tp3296
aa(lp3297
(I125
g2
(g6
S'\xff\xdc\xa0>'
p3298
tp3299
Rp3300
tp3301
a(I343
g2
(g6
S'Oza>'
p3302
tp3303
Rp3304
tp3305
a(I48
g2
(g6
S'\xfa\x0eO>'
p3306
tp3307
Rp3308
tp3309
aa(lp3310
(I46
g2
(g6
S'\x06\xf7T?'
p3311
tp3312
Rp3313
tp3314
a(I316
g2
(g6
S'\x06?\x08?'
p3315
tp3316
Rp3317
tp3318
a(I358
g2
(g6
S'7Ut>'
p3319
tp3320
Rp3321
tp3322
aa(lp3323
(I13
g2
(g6
S'>\xfc\x04?'
p3324
tp3325
Rp3326
tp3327
a(I101
g2
(g6
S'.z\x9b>'
p3328
tp3329
Rp3330
tp3331
a(I178
g2
(g6
S'D\x05L>'
p3332
tp3333
Rp3334
tp3335
aa(lp3336
(I337
g2
(g6
S'b\xfb\xc2>'
p3337
tp3338
Rp3339
tp3340
a(I296
g2
(g6
S'\x12F\\>'
p3341
tp3342
Rp3343
tp3344
a(I57
g2
(g6
S'\xbaS>>'
p3345
tp3346
Rp3347
tp3348
aa(lp3349
(I202
g2
(g6
S'%R5?'
p3350
tp3351
Rp3352
tp3353
a(I112
g2
(g6
S'\x89\x83\xd2>'
p3354
tp3355
Rp3356
tp3357
a(I4
g2
(g6
S'\xe8f\xbb>'
p3358
tp3359
Rp3360
tp3361
aa(lp3362
(I331
g2
(g6
S',L\x17?'
p3363
tp3364
Rp3365
tp3366
a(I305
g2
(g6
S'\x87!\x13?'
p3367
tp3368
Rp3369
tp3370
a(I108
g2
(g6
S'\x83\xc4\xfb>'
p3371
tp3372
Rp3373
tp3374
aa(lp3375
(I221
g2
(g6
S'\xa4$\xb8>'
p3376
tp3377
Rp3378
tp3379
a(I386
g2
(g6
S'\x95\xd4\xb5>'
p3380
tp3381
Rp3382
tp3383
a(I128
g2
(g6
S'\xbc\x86\x93>'
p3384
tp3385
Rp3386
tp3387
aa(lp3388
(I364
g2
(g6
S'\x16P\xfc>'
p3389
tp3390
Rp3391
tp3392
a(I5
g2
(g6
S'Lw\xb2>'
p3393
tp3394
Rp3395
tp3396
a(I329
g2
(g6
S'\x12\x02\x97>'
p3397
tp3398
Rp3399
tp3400
aa(lp3401
(I2
g2
(g6
S'\xa7:\xbd>'
p3402
tp3403
Rp3404
tp3405
a(I336
g2
(g6
S'\xe8\x92\x9c>'
p3406
tp3407
Rp3408
tp3409
a(I161
g2
(g6
S':\xea\x90>'
p3410
tp3411
Rp3412
tp3413
aa(lp3414
(I244
g2
(g6
S'\xf5\x03\xdf>'
p3415
tp3416
Rp3417
tp3418
a(I116
g2
(g6
S'\xf8\x19\xd6>'
p3419
tp3420
Rp3421
tp3422
a(I121
g2
(g6
S'\x95\x9c\xaf>'
p3423
tp3424
Rp3425
tp3426
aa(lp3427
(I251
g2
(g6
S'\x16@\xa5>'
p3428
tp3429
Rp3430
tp3431
a(I143
g2
(g6
S'\xd6v\x8e>'
p3432
tp3433
Rp3434
tp3435
a(I89
g2
(g6
S'\x18\x91p>'
p3436
tp3437
Rp3438
tp3439
aa(lp3440
(I327
g2
(g6
S'\x9e=w>'
p3441
tp3442
Rp3443
tp3444
a(I69
g2
(g6
S'\x9c\xe8]>'
p3445
tp3446
Rp3447
tp3448
a(I278
g2
(g6
S'\xa5\xb4:>'
p3449
tp3450
Rp3451
tp3452
aa(lp3453
(I34
g2
(g6
S'\xf3a\xe6>'
p3454
tp3455
Rp3456
tp3457
a(I133
g2
(g6
S'P\xda\x88>'
p3458
tp3459
Rp3460
tp3461
a(I282
g2
(g6
S'\xb6\xda\x87>'
p3462
tp3463
Rp3464
tp3465
aa(lp3466
(I31
g2
(g6
S'&0f?'
p3467
tp3468
Rp3469
tp3470
a(I10
g2
(g6
S'\xc5f\xea='
p3471
tp3472
Rp3473
tp3474
a(I126
g2
(g6
S'n\xfa\xde='
p3475
tp3476
Rp3477
tp3478
aa(lp3479
(I280
g2
(g6
S'H\x059?'
p3480
tp3481
Rp3482
tp3483
a(I287
g2
(g6
S'\x04{{>'
p3484
tp3485
Rp3486
tp3487
a(I176
g2
(g6
S'\x0e\nH>'
p3488
tp3489
Rp3490
tp3491
aa(lp3492
(I85
g2
(g6
S'\xed\\W?'
p3493
tp3494
Rp3495
tp3496
a(I313
g2
(g6
S'\xaeZ\r>'
p3497
tp3498
Rp3499
tp3500
a(I55
g2
(g6
S'\x19\xaa\x05>'
p3501
tp3502
Rp3503
tp3504
aa(lp3505
(I33
g2
(g6
S'\x1a)\xaf>'
p3506
tp3507
Rp3508
tp3509
a(I116
g2
(g6
S'\xabN\x96>'
p3510
tp3511
Rp3512
tp3513
a(I176
g2
(g6
S'\xec\xc2\x8e>'
p3514
tp3515
Rp3516
tp3517
aa(lp3518
(I135
g2
(g6
S'R\x1c\x03?'
p3519
tp3520
Rp3521
tp3522
a(I366
g2
(g6
S'\xf7\x82\xff>'
p3523
tp3524
Rp3525
tp3526
a(I307
g2
(g6
S'j\xe3\xf2>'
p3527
tp3528
Rp3529
tp3530
aa(lp3531
(I248
g2
(g6
S'~\xb0\x1e?'
p3532
tp3533
Rp3534
tp3535
a(I332
g2
(g6
S'\x8b\xdf/>'
p3536
tp3537
Rp3538
tp3539
a(I65
g2
(g6
S'\x06\xa2\xec='
p3540
tp3541
Rp3542
tp3543
aa(lp3544
(I65
g2
(g6
S'DDu>'
p3545
tp3546
Rp3547
tp3548
a(I325
g2
(g6
S' *<>'
p3549
tp3550
Rp3551
tp3552
a(I247
g2
(g6
S'u\x9b5>'
p3553
tp3554
Rp3555
tp3556
aa(lp3557
(I23
g2
(g6
S'w+\xf2>'
p3558
tp3559
Rp3560
tp3561
a(I302
g2
(g6
S'\xd1\x92\\>'
p3562
tp3563
Rp3564
tp3565
a(I335
g2
(g6
S'\x9cQE>'
p3566
tp3567
Rp3568
tp3569
aa(lp3570
(I62
g2
(g6
S'EL\x8e>'
p3571
tp3572
Rp3573
tp3574
a(I230
g2
(g6
S'\x0c\xe9\x87>'
p3575
tp3576
Rp3577
tp3578
a(I85
g2
(g6
S'@\x01k>'
p3579
tp3580
Rp3581
tp3582
aa(lp3583
(I101
g2
(g6
S'\xfa\xcc\x93>'
p3584
tp3585
Rp3586
tp3587
a(I301
g2
(g6
S'Rqi>'
p3588
tp3589
Rp3590
tp3591
a(I227
g2
(g6
S'\xd4\xcf\x10>'
p3592
tp3593
Rp3594
tp3595
aa(lp3596
(I74
g2
(g6
S'\xbex\x11?'
p3597
tp3598
Rp3599
tp3600
a(I18
g2
(g6
S'\xc5Z\xd5>'
p3601
tp3602
Rp3603
tp3604
a(I9
g2
(g6
S'\xa9\xd9\x90>'
p3605
tp3606
Rp3607
tp3608
aa(lp3609
(I389
g2
(g6
S'0\xcd)>'
p3610
tp3611
Rp3612
tp3613
a(I48
g2
(g6
S'&\xb7&>'
p3614
tp3615
Rp3616
tp3617
a(I66
g2
(g6
S'\xbc\x9c\xec='
p3618
tp3619
Rp3620
tp3621
aa(lp3622
(I221
g2
(g6
S'J\xdfF?'
p3623
tp3624
Rp3625
tp3626
a(I12
g2
(g6
S"\xc2'\x07?"
p3627
tp3628
Rp3629
tp3630
a(I364
g2
(g6
S'`\xcc\xd6>'
p3631
tp3632
Rp3633
tp3634
aa(lp3635
(I164
g2
(g6
S"'\x05!>"
p3636
tp3637
Rp3638
tp3639
a(I21
g2
(g6
S'\xdeP\x15>'
p3640
tp3641
Rp3642
tp3643
a(I214
g2
(g6
S'\x88Q\x12>'
p3644
tp3645
Rp3646
tp3647
aa(lp3648
(I267
g2
(g6
S'H\x059?'
p3649
tp3650
Rp3651
tp3652
a(I251
g2
(g6
S'\xb8\x05g>'
p3653
tp3654
Rp3655
tp3656
a(I174
g2
(g6
S'\xca$=>'
p3657
tp3658
Rp3659
tp3660
aa(lp3661
(I236
g2
(g6
S'\x04\x13"?'
p3662
tp3663
Rp3664
tp3665
a(I138
g2
(g6
S'3r\x8b>'
p3666
tp3667
Rp3668
tp3669
a(I24
g2
(g6
S'\x96Vx>'
p3670
tp3671
Rp3672
tp3673
aa(lp3674
(I265
g2
(g6
S'\xb6\xda\x87>'
p3675
tp3676
Rp3677
tp3678
a(I14
g2
(g6
S'\xde\xfei>'
p3679
tp3680
Rp3681
tp3682
a(I130
g2
(g6
S'hoa>'
p3683
tp3684
Rp3685
tp3686
aa(lp3687
(I30
g2
(g6
S'\x82\xf19>'
p3688
tp3689
Rp3690
tp3691
a(I372
g2
(g6
S'\xf4"$>'
p3692
tp3693
Rp3694
tp3695
a(I170
g2
(g6
S'\x9e\xf0\x0c>'
p3696
tp3697
Rp3698
tp3699
aa(lp3700
(I185
g2
(g6
S'6}\xd8>'
p3701
tp3702
Rp3703
tp3704
a(I10
g2
(g6
S'\x8ea\xc0>'
p3705
tp3706
Rp3707
tp3708
a(I138
g2
(g6
S'\x1c\xc0g>'
p3709
tp3710
Rp3711
tp3712
aa(lp3713
(I9
g2
(g6
S'\xf4\xc9\x16?'
p3714
tp3715
Rp3716
tp3717
a(I5
g2
(g6
S'\xd6\xf2\xc3>'
p3718
tp3719
Rp3720
tp3721
a(I221
g2
(g6
S'\xf9\xa4\x81>'
p3722
tp3723
Rp3724
tp3725
aa(lp3726
(I240
g2
(g6
S'\xd8\xa4\x9c>'
p3727
tp3728
Rp3729
tp3730
a(I77
g2
(g6
S'\xd6~:>'
p3731
tp3732
Rp3733
tp3734
a(I116
g2
(g6
S'NC#>'
p3735
tp3736
Rp3737
tp3738
aa(lp3739
(I267
g2
(g6
S'\x06{{>'
p3740
tp3741
Rp3742
tp3743
a(I246
g2
(g6
S'U)i>'
p3744
tp3745
Rp3746
tp3747
a(I17
g2
(g6
S'\x1f\xf5`>'
p3748
tp3749
Rp3750
tp3751
aa(lp3752
(I335
g2
(g6
S'\x89\xca\x02?'
p3753
tp3754
Rp3755
tp3756
a(I144
g2
(g6
S'\xc4\x84\xb1>'
p3757
tp3758
Rp3759
tp3760
a(I40
g2
(g6
S'&\x8d9>'
p3761
tp3762
Rp3763
tp3764
aa(lp3765
(I154
g2
(g6
S'&%\x94>'
p3766
tp3767
Rp3768
tp3769
a(I58
g2
(g6
S'D?\x8c>'
p3770
tp3771
Rp3772
tp3773
a(I293
g2
(g6
S'\xd9M~>'
p3774
tp3775
Rp3776
tp3777
aa(lp3778
(I104
g2
(g6
S'CX6>'
p3779
tp3780
Rp3781
tp3782
a(I381
g2
(g6
S'-q\t>'
p3783
tp3784
Rp3785
tp3786
a(I86
g2
(g6
S'\xc4\xa4\x05>'
p3787
tp3788
Rp3789
tp3790
aa(lp3791
(I129
g2
(g6
S'\xdd\xb6\xa3>'
p3792
tp3793
Rp3794
tp3795
a(I321
g2
(g6
S'S\xe4I>'
p3796
tp3797
Rp3798
tp3799
a(I73
g2
(g6
S'tl2>'
p3800
tp3801
Rp3802
tp3803
aa(lp3804
(I314
g2
(g6
S'\xc4\x13\x98>'
p3805
tp3806
Rp3807
tp3808
a(I387
g2
(g6
S'\xb9\xbe\x93>'
p3809
tp3810
Rp3811
tp3812
a(I10
g2
(g6
S"\x00\x90'>"
p3813
tp3814
Rp3815
tp3816
aa(lp3817
(I289
g2
(g6
S'\xd8M~>'
p3818
tp3819
Rp3820
tp3821
a(I42
g2
(g6
S'\xfe\x89?>'
p3822
tp3823
Rp3824
tp3825
a(I282
g2
(g6
S'\xb5\x95\x1f>'
p3826
tp3827
Rp3828
tp3829
aa(lp3830
(I237
g2
(g6
S'X\xfa\xf1>'
p3831
tp3832
Rp3833
tp3834
a(I11
g2
(g6
S'XS\x87>'
p3835
tp3836
Rp3837
tp3838
a(I76
g2
(g6
S'\xa1\xc2\xf1='
p3839
tp3840
Rp3841
tp3842
aa(lp3843
(I191
g2
(g6
S'\xdc\x1c\xce>'
p3844
tp3845
Rp3846
tp3847
a(I307
g2
(g6
S'ZS\x81>'
p3848
tp3849
Rp3850
tp3851
a(I70
g2
(g6
S':\xfbs>'
p3852
tp3853
Rp3854
tp3855
aa(lp3856
(I196
g2
(g6
S'\x86\xb9\x8f>'
p3857
tp3858
Rp3859
tp3860
a(I256
g2
(g6
S'\x13F\\>'
p3861
tp3862
Rp3863
tp3864
a(I300
g2
(g6
S'9a\x0c>'
p3865
tp3866
Rp3867
tp3868
aa(lp3869
(I186
g2
(g6
S'\\.P?'
p3870
tp3871
Rp3872
tp3873
a(I38
g2
(g6
S'B5\x98>'
p3874
tp3875
Rp3876
tp3877
a(I377
g2
(g6
S'lb\x8c>'
p3878
tp3879
Rp3880
tp3881
aa(lp3882
(I1
g2
(g6
S'\xb65-?'
p3883
tp3884
Rp3885
tp3886
a(I318
g2
(g6
S'\xcd|\xec>'
p3887
tp3888
Rp3889
tp3890
a(I397
g2
(g6
S'\xb0\xf4\xe3>'
p3891
tp3892
Rp3893
tp3894
aa(lp3895
(I211
g2
(g6
S'\x92\xe8\xe1>'
p3896
tp3897
Rp3898
tp3899
a(I298
g2
(g6
S'\xae\xf9\xc9>'
p3900
tp3901
Rp3902
tp3903
a(I318
g2
(g6
S'w\xd3\xa4>'
p3904
tp3905
Rp3906
tp3907
aa(lp3908
(I187
g2
(g6
S'D\x15w>'
p3909
tp3910
Rp3911
tp3912
a(I54
g2
(g6
S'*\x906>'
p3913
tp3914
Rp3915
tp3916
a(I104
g2
(g6
S'\x18\xb8->'
p3917
tp3918
Rp3919
tp3920
aa(lp3921
(I78
g2
(g6
S'V\tr>'
p3922
tp3923
Rp3924
tp3925
a(I275
g2
(g6
S'Rqi>'
p3926
tp3927
Rp3928
tp3929
a(I41
g2
(g6
S'!\xfcR>'
p3930
tp3931
Rp3932
tp3933
aa(lp3934
(I335
g2
(g6
S'\x94m\x97>'
p3935
tp3936
Rp3937
tp3938
a(I5
g2
(g6
S'\x1e\xc4\x8d>'
p3939
tp3940
Rp3941
tp3942
a(I273
g2
(g6
S'\xd0\x92\\>'
p3943
tp3944
Rp3945
tp3946
aa(lp3947
(I30
g2
(g6
S'~\x8e^?'
p3948
tp3949
Rp3950
tp3951
a(I169
g2
(g6
S'\xdd\xb5\x90>'
p3952
tp3953
Rp3954
tp3955
a(I44
g2
(g6
S'\x95\xf1t>'
p3956
tp3957
Rp3958
tp3959
aa(lp3960
(I57
g2
(g6
S'-\xb2\xeb>'
p3961
tp3962
Rp3963
tp3964
a(I149
g2
(g6
S'\xcf\xd3\xd1>'
p3965
tp3966
Rp3967
tp3968
a(I347
g2
(g6
S'\xed\xaa[>'
p3969
tp3970
Rp3971
tp3972
aa(lp3973
(I108
g2
(g6
S'-04?'
p3974
tp3975
Rp3976
tp3977
a(I331
g2
(g6
S'\x08\xd82?'
p3978
tp3979
Rp3980
tp3981
a(I258
g2
(g6
S'\x87!\x13?'
p3982
tp3983
Rp3984
tp3985
aa(lp3986
(I103
g2
(g6
S'HB\xf8>'
p3987
tp3988
Rp3989
tp3990
a(I101
g2
(g6
S'\x80\xa2Z>'
p3991
tp3992
Rp3993
tp3994
a(I3
g2
(g6
S'L\x956>'
p3995
tp3996
Rp3997
tp3998
aa(lp3999
(I70
g2
(g6
S'sp)?'
p4000
tp4001
Rp4002
tp4003
a(I270
g2
(g6
S'j\xe3\xf2>'
p4004
tp4005
Rp4006
tp4007
a(I366
g2
(g6
S'\nl\xd0>'
p4008
tp4009
Rp4010
tp4011
aa(lp4012
(I356
g2
(g6
S'\xcb\xed\xb1>'
p4013
tp4014
Rp4015
tp4016
a(I174
g2
(g6
S'>=?>'
p4017
tp4018
Rp4019
tp4020
a(I315
g2
(g6
S'\xa7}2>'
p4021
tp4022
Rp4023
tp4024
aa(lp4025
(I33
g2
(g6
S'\xaa\x81\xe2>'
p4026
tp4027
Rp4028
tp4029
a(I98
g2
(g6
S'M\xc5\xa6>'
p4030
tp4031
Rp4032
tp4033
a(I176
g2
(g6
S'\xcc.\x8e>'
p4034
tp4035
Rp4036
tp4037
aa(lp4038
(I328
g2
(g6
S'\x07\x03\xf7>'
p4039
tp4040
Rp4041
tp4042
a(I160
g2
(g6
S'#2\xa4>'
p4043
tp4044
Rp4045
tp4046
a(I335
g2
(g6
S'\x9fy_>'
p4047
tp4048
Rp4049
tp4050
aa(lp4051
(I194
g2
(g6
S'\xf4\xf3\xbe>'
p4052
tp4053
Rp4054
tp4055
a(I393
g2
(g6
S'\x84\\;>'
p4056
tp4057
Rp4058
tp4059
a(I18
g2
(g6
S'mI%>'
p4060
tp4061
Rp4062
tp4063
aa(lp4064
(I377
g2
(g6
S'6\xe6\xad>'
p4065
tp4066
Rp4067
tp4068
a(I157
g2
(g6
S'.(\x92>'
p4069
tp4070
Rp4071
tp4072
a(I152
g2
(g6
S'\t\xeaT>'
p4073
tp4074
Rp4075
tp4076
aa(lp4077
(I55
g2
(g6
S'\xf5\xadW>'
p4078
tp4079
Rp4080
tp4081
a(I161
g2
(g6
S'c\x93W>'
p4082
tp4083
Rp4084
tp4085
a(I390
g2
(g6
S'\xca\x93U>'
p4086
tp4087
Rp4088
tp4089
aa(lp4090
(I323
g2
(g6
S'\xf0v\x05?'
p4091
tp4092
Rp4093
tp4094
a(I292
g2
(g6
S'\xc4\x13\x98>'
p4095
tp4096
Rp4097
tp4098
a(I319
g2
(g6
S'\x12:v>'
p4099
tp4100
Rp4101
tp4102
aa(lp4103
(I377
g2
(g6
S'\xac6Y>'
p4104
tp4105
Rp4106
tp4107
a(I138
g2
(g6
S'\xde\xecG>'
p4108
tp4109
Rp4110
tp4111
a(I354
g2
(g6
S'\x83\x8e=>'
p4112
tp4113
Rp4114
tp4115
aa(lp4116
(I46
g2
(g6
S'\x12j\x0f?'
p4117
tp4118
Rp4119
tp4120
a(I254
g2
(g6
S'\x05?\x08?'
p4121
tp4122
Rp4123
tp4124
a(I223
g2
(g6
S'M\xfek>'
p4125
tp4126
Rp4127
tp4128
aa(lp4129
(I189
g2
(g6
S'R\x18\xe6>'
p4130
tp4131
Rp4132
tp4133
a(I181
g2
(g6
S'D&f>'
p4134
tp4135
Rp4136
tp4137
a(I110
g2
(g6
S'B\x99[>'
p4138
tp4139
Rp4140
tp4141
aa(lp4142
(I144
g2
(g6
S'\xd6X\x16?'
p4143
tp4144
Rp4145
tp4146
a(I329
g2
(g6
S'Wr\x13?'
p4147
tp4148
Rp4149
tp4150
a(I397
g2
(g6
S'\xd0]\x11?'
p4151
tp4152
Rp4153
tp4154
aa(lp4155
(I153
g2
(g6
S'\xceD\x0e?'
p4156
tp4157
Rp4158
tp4159
a(I314
g2
(g6
S'\x12:v>'
p4160
tp4161
Rp4162
tp4163
a(I155
g2
(g6
S'0\xed >'
p4164
tp4165
Rp4166
tp4167
aa(lp4168
(I166
g2
(g6
S'\xe8\xa8\xbb>'
p4169
tp4170
Rp4171
tp4172
a(I134
g2
(g6
S'v\xca\xa4>'
p4173
tp4174
Rp4175
tp4176
a(I330
g2
(g6
S'\x89\xe3Q>'
p4177
tp4178
Rp4179
tp4180
aa(lp4181
(I226
g2
(g6
S'\xb0k\x07?'
p4182
tp4183
Rp4184
tp4185
a(I152
g2
(g6
S'\xf0R\xb2>'
p4186
tp4187
Rp4188
tp4189
a(I291
g2
(g6
S'V\xe4I>'
p4190
tp4191
Rp4192
tp4193
aa(lp4194
(I249
g2
(g6
S't\xca\xdd>'
p4195
tp4196
Rp4197
tp4198
a(I141
g2
(g6
S'\xb0\x91y>'
p4199
tp4200
Rp4201
tp4202
a(I231
g2
(g6
S'\xa4\x04S>'
p4203
tp4204
Rp4205
tp4206
aa(lp4207
(I314
g2
(g6
S'\xf0v\x05?'
p4208
tp4209
Rp4210
tp4211
a(I387
g2
(g6
S'\x7f\x9e\x9e>'
p4212
tp4213
Rp4214
tp4215
a(I27
g2
(g6
S'\x00X2>'
p4216
tp4217
Rp4218
tp4219
aa(lp4220
(I50
g2
(g6
S'\xe17U>'
p4221
tp4222
Rp4223
tp4224
a(I180
g2
(g6
S'\xb6\x12K>'
p4225
tp4226
Rp4227
tp4228
a(I207
g2
(g6
S'\x8d\xcf*>'
p4229
tp4230
Rp4231
tp4232
aa(lp4233
(I117
g2
(g6
S'sW\xf2>'
p4234
tp4235
Rp4236
tp4237
a(I207
g2
(g6
S"\xbe'z>"
p4238
tp4239
Rp4240
tp4241
a(I272
g2
(g6
S' *<>'
p4242
tp4243
Rp4244
tp4245
aa(lp4246
(I45
g2
(g6
S'd!B>'
p4247
tp4248
Rp4249
tp4250
a(I82
g2
(g6
S'Ta1>'
p4251
tp4252
Rp4253
tp4254
a(I323
g2
(g6
S'\xa5\xa7#>'
p4255
tp4256
Rp4257
tp4258
aa(lp4259
(I217
g2
(g6
S'n\xa8\xc3>'
p4260
tp4261
Rp4262
tp4263
a(I146
g2
(g6
S'\xbc\x8f\x8b>'
p4264
tp4265
Rp4266
tp4267
a(I264
g2
(g6
S'\x9f=w>'
p4268
tp4269
Rp4270
tp4271
aa(lp4272
(I310
g2
(g6
S'\x07\x03\xf7>'
p4273
tp4274
Rp4275
tp4276
a(I388
g2
(g6
S'(\xb8\xa3>'
p4277
tp4278
Rp4279
tp4280
a(I335
g2
(g6
S'g\xcf\x82>'
p4281
tp4282
Rp4283
tp4284
aa(lp4285
(I318
g2
(g6
S'Wr\x13?'
p4286
tp4287
Rp4288
tp4289
a(I144
g2
(g6
S',y\x11?'
p4290
tp4291
Rp4292
tp4293
a(I158
g2
(g6
S'J\x0b\xfd>'
p4294
tp4295
Rp4296
tp4297
aa(lp4298
(I16
g2
(g6
S'\xcdq+?'
p4299
tp4300
Rp4301
tp4302
a(I161
g2
(g6
S'\x06X\x9f>'
p4303
tp4304
Rp4305
tp4306
a(I39
g2
(g6
S'\xd7/\x93>'
p4307
tp4308
Rp4309
tp4310
aa(lp4311
(I108
g2
(g6
S'u\xee8?'
p4312
tp4313
Rp4314
tp4315
a(I305
g2
(g6
S'\x08\xd82?'
p4316
tp4317
Rp4318
tp4319
a(I350
g2
(g6
S'\x04N#?'
p4320
tp4321
Rp4322
tp4323
aa(lp4324
(I173
g2
(g6
S'Z\x1a\x9a>'
p4325
tp4326
Rp4327
tp4328
a(I341
g2
(g6
S'\x82\xecm>'
p4329
tp4330
Rp4331
tp4332
a(I327
g2
(g6
S'\xaa}R>'
p4333
tp4334
Rp4335
tp4336
aa(lp4337
(I179
g2
(g6
S'\xd6\xc3\x0c?'
p4338
tp4339
Rp4340
tp4341
a(I334
g2
(g6
S'"Y\xa0>'
p4342
tp4343
Rp4344
tp4345
a(I198
g2
(g6
S'\xb4\x97\x81>'
p4346
tp4347
Rp4348
tp4349
aa(lp4350
(I333
g2
(g6
S'"Y\xa0>'
p4351
tp4352
Rp4353
tp4354
a(I338
g2
(g6
S'\x91\x81\x89>'
p4355
tp4356
Rp4357
tp4358
a(I374
g2
(g6
S'g\x86g>'
p4359
tp4360
Rp4361
tp4362
aa(lp4363
(I288
g2
(g6
S'\x88\xca\x02?'
p4364
tp4365
Rp4366
tp4367
a(I144
g2
(g6
S'$j\xba>'
p4368
tp4369
Rp4370
tp4371
a(I302
g2
(g6
S'\x94m\x97>'
p4372
tp4373
Rp4374
tp4375
aa(lp4376
(I161
g2
(g6
S'\xbfBD?'
p4377
tp4378
Rp4379
tp4380
a(I261
g2
(g6
S'\xe8\x92\x9c>'
p4381
tp4382
Rp4383
tp4384
a(I330
g2
(g6
S'W\x048>'
p4385
tp4386
Rp4387
tp4388
aa(lp4389
(I256
g2
(g6
S'd\xfb\xc2>'
p4390
tp4391
Rp4392
tp4393
a(I176
g2
(g6
S'\x9e\x97V>'
p4394
tp4395
Rp4396
tp4397
a(I124
g2
(g6
S'J\rT>'
p4398
tp4399
Rp4400
tp4401
aa(lp4402
(I59
g2
(g6
S'u\x97\xc6>'
p4403
tp4404
Rp4405
tp4406
a(I334
g2
(g6
S'\x90\x81\x89>'
p4407
tp4408
Rp4409
tp4410
a(I192
g2
(g6
S'\x8c\x0fH>'
p4411
tp4412
Rp4413
tp4414
aa(lp4415
(I52
g2
(g6
S'\xde\x0e\x07?'
p4416
tp4417
Rp4418
tp4419
a(I55
g2
(g6
S'pW\xec>'
p4420
tp4421
Rp4422
tp4423
a(I143
g2
(g6
S'\xb0\x88O>'
p4424
tp4425
Rp4426
tp4427
aa(lp4428
(I35
g2
(g6
S'\x04\xbeu>'
p4429
tp4430
Rp4431
tp4432
a(I66
g2
(g6
S'\xe5\xd45>'
p4433
tp4434
Rp4435
tp4436
a(I236
g2
(g6
S')\xaf+>'
p4437
tp4438
Rp4439
tp4440
aa(lp4441
(I332
g2
(g6
S'\x82\xecm>'
p4442
tp4443
Rp4444
tp4445
a(I377
g2
(g6
S'R\x12A>'
p4446
tp4447
Rp4448
tp4449
a(I65
g2
(g6
S'\x96f\x1c>'
p4450
tp4451
Rp4452
tp4453
aa(lp4454
(I215
g2
(g6
S'e\xa7\x93>'
p4455
tp4456
Rp4457
tp4458
a(I63
g2
(g6
S'\xab\xa6{>'
p4459
tp4460
Rp4461
tp4462
a(I124
g2
(g6
S'G\xbbr>'
p4463
tp4464
Rp4465
tp4466
aa(lp4467
(I143
g2
(g6
S'>\x05\n?'
p4468
tp4469
Rp4470
tp4471
a(I345
g2
(g6
S'\xaeD\xbd>'
p4472
tp4473
Rp4474
tp4475
a(I253
g2
(g6
S'Pza>'
p4476
tp4477
Rp4478
tp4479
aa(lp4480
(I272
g2
(g6
S'\xadC\x17>'
p4481
tp4482
Rp4483
tp4484
a(I160
g2
(g6
S'."\x11>'
p4485
tp4486
Rp4487
tp4488
a(I198
g2
(g6
S'\x16\x06\x0b>'
p4489
tp4490
Rp4491
tp4492
aa(lp4493
(I14
g2
(g6
S'\xa1\x12\xd8>'
p4494
tp4495
Rp4496
tp4497
a(I343
g2
(g6
S'\xaeD\xbd>'
p4498
tp4499
Rp4500
tp4501
a(I346
g2
(g6
S'\x885f>'
p4502
tp4503
Rp4504
tp4505
aa(lp4506
(I14
g2
(g6
S'\x02\xa1\x12?'
p4507
tp4508
Rp4509
tp4510
a(I391
g2
(g6
S'\x0e(\x88>'
p4511
tp4512
Rp4513
tp4514
a(I107
g2
(g6
S'hGz>'
p4515
tp4516
Rp4517
tp4518
aa(lp4519
(I77
g2
(g6
S'*\xab\x0f?'
p4520
tp4521
Rp4522
tp4523
a(I390
g2
(g6
S'\xdf\x9d\xf7>'
p4524
tp4525
Rp4526
tp4527
a(I57
g2
(g6
S'[\xed\xe8>'
p4528
tp4529
Rp4530
tp4531
aa(lp4532
(I395
g2
(g6
S'X %>'
p4533
tp4534
Rp4535
tp4536
a(I347
g2
(g6
S'\xd8\xcf\x18>'
p4537
tp4538
Rp4539
tp4540
a(I113
g2
(g6
S'\x833\x14>'
p4541
tp4542
Rp4543
tp4544
aa(lp4545
(I113
g2
(g6
S'V\x0f\xa1>'
p4546
tp4547
Rp4548
tp4549
a(I48
g2
(g6
S'\x139S>'
p4550
tp4551
Rp4552
tp4553
a(I180
g2
(g6
S'\xb8gL>'
p4554
tp4555
Rp4556
tp4557
aa(lp4558
(I331
g2
(g6
S'\x04N#?'
p4559
tp4560
Rp4561
tp4562
a(I305
g2
(g6
S'\xe8v\xf6>'
p4563
tp4564
Rp4565
tp4566
a(I365
g2
(g6
S'\xe7\xa1\xea>'
p4567
tp4568
Rp4569
tp4570
aa(lp4571
(I112
g2
(g6
S'l\xfd\xae>'
p4572
tp4573
Rp4574
tp4575
a(I172
g2
(g6
S'<\x91\xa3>'
p4576
tp4577
Rp4578
tp4579
a(I353
g2
(g6
S'4P\x98>'
p4580
tp4581
Rp4582
tp4583
aa(lp4584
(I354
g2
(g6
S'\xba\x97\xbf>'
p4585
tp4586
Rp4587
tp4588
a(I100
g2
(g6
S'\x9b"\x95>'
p4589
tp4590
Rp4591
tp4592
a(I205
g2
(g6
S',\xafz>'
p4593
tp4594
Rp4595
tp4596
aa(lp4597
(I112
g2
(g6
S'L\x040?'
p4598
tp4599
Rp4600
tp4601
a(I4
g2
(g6
S'\r\xac+?'
p4602
tp4603
Rp4604
tp4605
a(I351
g2
(g6
S'4P\x98>'
p4606
tp4607
Rp4608
tp4609
aa(lp4610
(I352
g2
(g6
S'\xba\x97\xbf>'
p4611
tp4612
Rp4613
tp4614
a(I100
g2
(g6
S'0\xed\xba>'
p4615
tp4616
Rp4617
tp4618
a(I374
g2
(g6
S'\xd5Tl>'
p4619
tp4620
Rp4621
tp4622
aa(lp4623
(I142
g2
(g6
S'\xe0?\xbc>'
p4624
tp4625
Rp4626
tp4627
a(I235
g2
(g6
S'\xd64\x95>'
p4628
tp4629
Rp4630
tp4631
a(I391
g2
(g6
S'\xe4y\x88>'
p4632
tp4633
Rp4634
tp4635
aa(lp4636
(I308
g2
(g6
S'\xca\xed\xb1>'
p4637
tp4638
Rp4639
tp4640
a(I374
g2
(g6
S'\xf8\x92}>'
p4641
tp4642
Rp4643
tp4644
a(I102
g2
(g6
S'\xbe\xf4G>'
p4645
tp4646
Rp4647
tp4648
aa(lp4649
(I123
g2
(g6
S'\xa1 \x89>'
p4650
tp4651
Rp4652
tp4653
a(I115
g2
(g6
S'\xe6\x04\x14>'
p4654
tp4655
Rp4656
tp4657
a(I390
g2
(g6
S'\x8e0\x07>'
p4658
tp4659
Rp4660
tp4661
aa(lp4662
(I254
g2
(g6
S'7Ut>'
p4663
tp4664
Rp4665
tp4666
a(I177
g2
(g6
S'/,o>'
p4667
tp4668
Rp4669
tp4670
a(I204
g2
(g6
S'\xa4\xcan>'
p4671
tp4672
Rp4673
tp4674
aa(lp4675
(I169
g2
(g6
S'3\xd7\xca>'
p4676
tp4677
Rp4678
tp4679
a(I159
g2
(g6
S"y'\xa7>"
p4680
tp4681
Rp4682
tp4683
a(I233
g2
(g6
S'\xea\xf8\x89>'
p4684
tp4685
Rp4686
tp4687
aa(lp4688
(I222
g2
(g6
S'\x9b\xe3\x14>'
p4689
tp4690
Rp4691
tp4692
a(I389
g2
(g6
S'\x1ad\r>'
p4693
tp4694
Rp4695
tp4696
a(I28
g2
(g6
S'\x00\xb3\t>'
p4697
tp4698
Rp4699
tp4700
aa(lp4701
(I121
g2
(g6
S'/+\x96>'
p4702
tp4703
Rp4704
tp4705
a(I148
g2
(g6
S'6\xc2l>'
p4706
tp4707
Rp4708
tp4709
a(I216
g2
(g6
S'\xe5-L>'
p4710
tp4711
Rp4712
tp4713
aa(lp4714
(I232
g2
(g6
S'\xa8_Q>'
p4715
tp4716
Rp4717
tp4718
a(I23
g2
(g6
S'\xaci\x17>'
p4719
tp4720
Rp4721
tp4722
a(I147
g2
(g6
S'\x8c6\x17>'
p4723
tp4724
Rp4725
tp4726
aa(lp4727
(I378
g2
(g6
S'N\xc8!?'
p4728
tp4729
Rp4730
tp4731
a(I233
g2
(g6
S'x k>'
p4732
tp4733
Rp4734
tp4735
a(I359
g2
(g6
S'< \x17>'
p4736
tp4737
Rp4738
tp4739
aa(lp4740
(I260
g2
(g6
S'\x16P\xfc>'
p4741
tp4742
Rp4743
tp4744
a(I278
g2
(g6
S'`\xcc\xd6>'
p4745
tp4746
Rp4747
tp4748
a(I221
g2
(g6
S'\x9cl\x86>'
p4749
tp4750
Rp4751
tp4752
aa(lp4753
(I350
g2
(g6
S'\xe6\xa1\xea>'
p4754
tp4755
Rp4756
tp4757
a(I151
g2
(g6
S'\xd2f\x89>'
p4758
tp4759
Rp4760
tp4761
a(I232
g2
(g6
S'\xd5$n>'
p4762
tp4763
Rp4764
tp4765
aa(lp4766
(I70
g2
(g6
S'\xfe\xe8\x01?'
p4767
tp4768
Rp4769
tp4770
a(I270
g2
(g6
S'\xf6\x82\xff>'
p4771
tp4772
Rp4773
tp4774
a(I307
g2
(g6
S'\x0cl\xd0>'
p4775
tp4776
Rp4777
tp4778
aa(lp4779
(I307
g2
(g6
S'c\x17\xab>'
p4780
tp4781
Rp4782
tp4783
a(I134
g2
(g6
S'\xba\xd65>'
p4784
tp4785
Rp4786
tp4787
a(I171
g2
(g6
S'6\xbe(>'
p4788
tp4789
Rp4790
tp4791
aa(lp4792
(I89
g2
(g6
S'\xd9h$?'
p4793
tp4794
Rp4795
tp4796
a(I126
g2
(g6
S'z0\xab>'
p4797
tp4798
Rp4799
tp4800
a(I146
g2
(g6
S'\x90\x11\x96>'
p4801
tp4802
Rp4803
tp4804
aa(lp4805
(I95
g2
(g6
S'\xb9\xd9\xe4='
p4806
tp4807
Rp4808
tp4809
a(I313
g2
(g6
S'Td\xd7='
p4810
tp4811
Rp4812
tp4813
a(I175
g2
(g6
S'\xf6`\xcc='
p4814
tp4815
Rp4816
tp4817
aa(lp4818
(I34
g2
(g6
S'\x96\xa7\x10?'
p4819
tp4820
Rp4821
tp4822
a(I37
g2
(g6
S'\xbcC\x96>'
p4823
tp4824
Rp4825
tp4826
a(I187
g2
(g6
S'g3M>'
p4827
tp4828
Rp4829
tp4830
aa(lp4831
(I192
g2
(g6
S'BD\x86>'
p4832
tp4833
Rp4834
tp4835
a(I111
g2
(g6
S'\xa7@\x05>'
p4836
tp4837
Rp4838
tp4839
a(I332
g2
(g6
S'hW\x03>'
p4840
tp4841
Rp4842
tp4843
aa(lp4844
(I194
g2
(g6
S'\xb6\xb2f>'
p4845
tp4846
Rp4847
tp4848
a(I12
g2
(g6
S'\x08\x16f>'
p4849
tp4850
Rp4851
tp4852
a(I335
g2
(g6
S')\xfa\\>'
p4853
tp4854
Rp4855
tp4856
aa(lp4857
(I80
g2
(g6
S'y*\x7f>'
p4858
tp4859
Rp4860
tp4861
a(I98
g2
(g6
S'\xe6NH>'
p4862
tp4863
Rp4864
tp4865
a(I63
g2
(g6
S'\x16\xa0<>'
p4866
tp4867
Rp4868
tp4869
aa(lp4870
(I395
g2
(g6
S'\x9e=\xbb>'
p4871
tp4872
Rp4873
tp4874
a(I356
g2
(g6
S'\xf8\x92}>'
p4875
tp4876
Rp4877
tp4878
a(I354
g2
(g6
S'\xd4Tl>'
p4879
tp4880
Rp4881
tp4882
aa(lp4883
(I220
g2
(g6
S'\xd1\x01\xa3>'
p4884
tp4885
Rp4886
tp4887
a(I210
g2
(g6
S'L\xbdW>'
p4888
tp4889
Rp4890
tp4891
a(I213
g2
(g6
S'\x08\xe0K>'
p4892
tp4893
Rp4894
tp4895
aa(lp4896
(I100
g2
(g6
S'LF\xf8>'
p4897
tp4898
Rp4899
tp4900
a(I129
g2
(g6
S'\x08D\xe5>'
p4901
tp4902
Rp4903
tp4904
a(I167
g2
(g6
S'\x9c\xbb\x9d>'
p4905
tp4906
Rp4907
tp4908
aa(lp4909
(I312
g2
(g6
S'6\xe6\xad>'
p4910
tp4911
Rp4912
tp4913
a(I186
g2
(g6
S'\xc0P\xa0>'
p4914
tp4915
Rp4916
tp4917
a(I157
g2
(g6
S'\\\x12\x9e>'
p4918
tp4919
Rp4920
tp4921
aa(lp4922
(I363
g2
(g6
S'N\xc8!?'
p4923
tp4924
Rp4925
tp4926
a(I83
g2
(g6
S'\xa6).>'
p4927
tp4928
Rp4929
tp4930
a(I276
g2
(g6
S'?9\x06>'
p4931
tp4932
Rp4933
tp4934
aa(lp4935
(I51
g2
(g6
S'Cj\xad>'
p4936
tp4937
Rp4938
tp4939
a(I62
g2
(g6
S'-N\x92>'
p4940
tp4941
Rp4942
tp4943
a(I74
g2
(g6
S'\x14y]>'
p4944
tp4945
Rp4946
tp4947
aa(lp4948
(I106
g2
(g6
S'\x9an\x9c>'
p4949
tp4950
Rp4951
tp4952
a(I117
g2
(g6
S'\x1e\x18\x92>'
p4953
tp4954
Rp4955
tp4956
a(I60
g2
(g6
S'!\x83Q>'
p4957
tp4958
Rp4959
tp4960
aa(lp4961
(I127
g2
(g6
S'r\x03\xb1>'
p4962
tp4963
Rp4964
tp4965
a(I209
g2
(g6
S'\xa2\x10\xa0>'
p4966
tp4967
Rp4968
tp4969
a(I63
g2
(g6
S'Q\xedN>'
p4970
tp4971
Rp4972
tp4973
aa(lp4974
(I39
g2
(g6
S'\xb2\xb9d>'
p4975
tp4976
Rp4977
tp4978
a(I209
g2
(g6
S'\xe8(<>'
p4979
tp4980
Rp4981
tp4982
a(I163
g2
(g6
S'\xc4\x13\x1d>'
p4983
tp4984
Rp4985
tp4986
aa(lp4987
(I207
g2
(g6
S'\x8c(R>'
p4988
tp4989
Rp4990
tp4991
a(I324
g2
(g6
S';]%>'
p4992
tp4993
Rp4994
tp4995
a(I308
g2
(g6
S'j\x80\x14>'
p4996
tp4997
Rp4998
tp4999
aa(lp5000
(I37
g2
(g6
S'sfC>'
p5001
tp5002
Rp5003
tp5004
a(I213
g2
(g6
S'\x0c\xb2<>'
p5005
tp5006
Rp5007
tp5008
a(I391
g2
(g6
S'\x1c6\x1e>'
p5009
tp5010
Rp5011
tp5012
aa(lp5013
(I394
g2
(g6
S'\xf4CN?'
p5014
tp5015
Rp5016
tp5017
a(I196
g2
(g6
S'\xc6\xdad>'
p5018
tp5019
Rp5020
tp5021
a(I139
g2
(g6
S'F\x9e^>'
p5022
tp5023
Rp5024
tp5025
aa(lp5026
(I259
g2
(g6
S'\x94\xd4\xb5>'
p5027
tp5028
Rp5029
tp5030
a(I241
g2
(g6
S'\x0en/>'
p5031
tp5032
Rp5033
tp5034
a(I284
g2
(g6
S'\xc4\x8a->'
p5035
tp5036
Rp5037
tp5038
aa(lp5039
(I64
g2
(g6
S'\xa2\x0c\xb7>'
p5040
tp5041
Rp5042
tp5043
a(I323
g2
(g6
S'\x7f\x9e\x9e>'
p5044
tp5045
Rp5046
tp5047
a(I292
g2
(g6
S'\xb9\xbe\x93>'
p5048
tp5049
Rp5050
tp5051
aa(lp5052
(I328
g2
(g6
S'(\xb8\xa3>'
p5053
tp5054
Rp5055
tp5056
a(I355
g2
(g6
S'\xa8F|>'
p5057
tp5058
Rp5059
tp5060
a(I235
g2
(g6
S'\nyR>'
p5061
tp5062
Rp5063
tp5064
aa(lp5065
(I185
g2
(g6
S'\xdc\n ?'
p5066
tp5067
Rp5068
tp5069
a(I10
g2
(g6
S'\xd8U\xbf>'
p5070
tp5071
Rp5072
tp5073
a(I217
g2
(g6
S'\xa9\xbf\x90>'
p5074
tp5075
Rp5076
tp5077
aa(lp5078
(I347
g2
(g6
S'\xde\x9d\xf7>'
p5079
tp5080
Rp5081
tp5082
a(I77
g2
(g6
S'\x93n\xf7>'
p5083
tp5084
Rp5085
tp5086
a(I313
g2
(g6
S'\xcb\x93U>'
p5087
tp5088
Rp5089
tp5090
aa(lp5091
(I355
g2
(g6
S'\xe4y\x88>'
p5092
tp5093
Rp5094
tp5095
a(I346
g2
(g6
S'\x0e(\x88>'
p5096
tp5097
Rp5098
tp5099
a(I190
g2
(g6
S'0ks>'
p5100
tp5101
Rp5102
tp5103
aa(lp5104
(I199
g2
(g6
S'\xd2`I>'
p5105
tp5106
Rp5107
tp5108
a(I244
g2
(g6
S'\xba)<>'
p5109
tp5110
Rp5111
tp5112
a(I232
g2
(g6
S'o\x97+>'
p5113
tp5114
Rp5115
tp5116
aa(lp5117
(I178
g2
(g6
S'V\xca\xc7>'
p5118
tp5119
Rp5120
tp5121
a(I156
g2
(g6
S'\xdc\xcc\xa4>'
p5122
tp5123
Rp5124
tp5125
a(I71
g2
(g6
S'f\x7f\x85>'
p5126
tp5127
Rp5128
tp5129
aa(lp5130
(I385
g2
(g6
S'\xf4CN?'
p5131
tp5132
Rp5133
tp5134
a(I196
g2
(g6
S'\xe8}\xb5>'
p5135
tp5136
Rp5137
tp5138
a(I306
g2
(g6
S'\x85;\x07>'
p5139
tp5140
Rp5141
tp5142
aa(lp5143
(I66
g2
(g6
S'\xee\xea\xc1>'
p5144
tp5145
Rp5146
tp5147
a(I374
g2
(g6
S'\xa0=\xbb>'
p5148
tp5149
Rp5150
tp5151
a(I167
g2
(g6
S'=\xa1\xb7>'
p5152
tp5153
Rp5154
tp5155
aa(lp5156
(I241
g2
(g6
S'ojj?'
p5157
tp5158
Rp5159
tp5160
a(I185
g2
(g6
S'\xb2\xdf\x18>'
p5161
tp5162
Rp5163
tp5164
a(I135
g2
(g6
S'\x1e?\xe2='
p5165
tp5166
Rp5167
tp5168
aa(lp5169
(I318
g2
(g6
S'\xd0]\x11?'
p5170
tp5171
Rp5172
tp5173
a(I144
g2
(g6
S'\xec\xa5\x10?'
p5174
tp5175
Rp5176
tp5177
a(I298
g2
(g6
S'\xb1\xf4\xe3>'
p5178
tp5179
Rp5180
tp5181
aa.