(lp0
S'Novel Machine Learning Algorithms (NMLA)'
p1
ag1
aS'Novel Machine Learning Algorithms (NMLA)'
p2
aS'AI and the Web (AIW)'
p3
ag2
aS'Game Theory and Economic Paradigms (GTEP)'
p4
ag4
aS'NLP and Text Mining (NLPTM)'
p5
ag5
aS'Vision (VIS)'
p6
aS'Knowledge Representation and Reasoning (KRR)'
p7
aS'Machine Learning Applications (MLA)'
p8
aS'Novel Machine Learning Algorithms (NMLA)'
p9
ag6
aS'Vision (VIS)'
p10
ag10
aS'Machine Learning Applications (MLA)'
p11
ag11
aS'Novel Machine Learning Algorithms (NMLA)'
p12
aS'Machine Learning Applications (MLA)'
p13
aS'NLP and Machine Learning (NLPML)'
p14
ag12
aS'AI and the Web (AIW)'
p15
ag15
aS'Vision (VIS)'
p16
aS'Novel Machine Learning Algorithms (NMLA)'
p17
ag16
aS'Search and Constraint Satisfaction (SCS)'
p18
aS'Heuristic Search and Optimization (HSO)'
p19
ag18
aS'Reasoning under Uncertainty (RU)'
p20
aS'Novel Machine Learning Algorithms (NMLA)'
p21
ag20
aS'Novel Machine Learning Algorithms (NMLA)'
p22
ag22
aS'AI and the Web (AIW)'
p23
ag23
aS'Planning and Scheduling (PS)'
p24
ag24
aS'NLP and Machine Learning (NLPML)'
p25
aS'Applications (APP)'
p26
aS'Machine Learning Applications (MLA)'
p27
ag25
aS'Multiagent Systems (MAS)'
p28
aS'Applications (APP)'
p29
aS'Game Theory and Economic Paradigms (GTEP)'
p30
ag28
aS'Computational Sustainability and AI (CSAI)'
p31
ag31
aS'AI and the Web (AIW)'
p32
ag32
aS'Vision (VIS)'
p33
ag33
aS'Humans and AI (HAI)'
p34
aS'Cognitive Modeling (CM)'
p35
aS'Cognitive Systems (CS)'
p36
ag34
aS'Knowledge Representation and Reasoning (KRR)'
p37
ag37
aS'Multiagent Systems (MAS)'
p38
ag38
aS'Novel Machine Learning Algorithms (NMLA)'
p39
ag39
aS'Novel Machine Learning Algorithms (NMLA)'
p40
ag40
aS'Robotics (ROB)'
p41
aS'Humans and AI (HAI)'
p42
aS'NLP and Machine Learning (NLPML)'
p43
ag41
aS'Computational Sustainability and AI (CSAI)'
p44
ag44
aS'Search and Constraint Satisfaction (SCS)'
p45
aS'Heuristic Search and Optimization (HSO)'
p46
aS'Planning and Scheduling (PS)'
p47
ag45
aS'Machine Learning Applications (MLA)'
p48
aS'AI and the Web (AIW)'
p49
ag48
aS'Applications (APP)'
p50
ag50
aS'Game Theory and Economic Paradigms (GTEP)'
p51
ag51
aS'Planning and Scheduling (PS)'
p52
aS'Heuristic Search and Optimization (HSO)'
p53
ag52
aS'Novel Machine Learning Algorithms (NMLA)'
p54
ag54
aS'Novel Machine Learning Algorithms (NMLA)'
p55
ag55
aS'Game Theory and Economic Paradigms (GTEP)'
p56
ag56
aS'Knowledge Representation and Reasoning (KRR)'
p57
ag57
aS'Novel Machine Learning Algorithms (NMLA)'
p58
aS'Machine Learning Applications (MLA)'
p59
ag58
aS'Multiagent Systems (MAS)'
p60
aS'Applications (APP)'
p61
aS'Game Theory and Economic Paradigms (GTEP)'
p62
ag60
aS'Machine Learning Applications (MLA)'
p63
aS'AI and the Web (AIW)'
p64
ag63
aS'Game Theory and Economic Paradigms (GTEP)'
p65
ag65
aS'Novel Machine Learning Algorithms (NMLA)'
p66
ag66
aS'Knowledge Representation and Reasoning (KRR)'
p67
aS'AI and the Web (AIW)'
p68
ag67
aS'Novel Machine Learning Algorithms (NMLA)'
p69
aS'Machine Learning Applications (MLA)'
p70
ag69
aS'Vision (VIS)'
p71
aS'Novel Machine Learning Algorithms (NMLA)'
p72
aS'Planning and Scheduling (PS)'
p73
aS'Reasoning under Uncertainty (RU)'
p74
ag71
aS'Game Theory and Economic Paradigms (GTEP)'
p75
ag75
aS'Reasoning under Uncertainty (RU)'
p76
aS'Knowledge Representation and Reasoning (KRR)'
p77
ag76
aS'Novel Machine Learning Algorithms (NMLA)'
p78
ag78
aS'Humans and AI (HAI)'
p79
ag79
aS'Vision (VIS)'
p80
aS'AI and the Web (AIW)'
p81
aS'Humans and AI (HAI)'
p82
aS'Machine Learning Applications (MLA)'
p83
ag80
aS'Planning and Scheduling (PS)'
p84
aS'Heuristic Search and Optimization (HSO)'
p85
ag84
aS'AI and the Web (AIW)'
p86
ag86
aS'AI and the Web (AIW)'
p87
ag87
aS'Novel Machine Learning Algorithms (NMLA)'
p88
aS'AI and the Web (AIW)'
p89
aS'Applications (APP)'
p90
ag88
aS'NLP and Machine Learning (NLPML)'
p91
ag91
aS'Novel Machine Learning Algorithms (NMLA)'
p92
aS'Heuristic Search and Optimization (HSO)'
p93
ag92
aS'AI and the Web (AIW)'
p94
ag94
aS'Knowledge Representation and Reasoning (KRR)'
p95
aS'Game Playing and Interactive Entertainment (GPIE)'
p96
ag95
aS'Game Theory and Economic Paradigms (GTEP)'
p97
ag97
aS'Robotics (ROB)'
p98
ag98
aS'Novel Machine Learning Algorithms (NMLA)'
p99
ag99
aS'Game Theory and Economic Paradigms (GTEP)'
p100
ag100
aS'Novel Machine Learning Algorithms (NMLA)'
p101
ag101
aS'Knowledge Representation and Reasoning (KRR)'
p102
aS'AI and the Web (AIW)'
p103
ag102
aS'Reasoning under Uncertainty (RU)'
p104
aS'Applications (APP)'
p105
aS'Computational Sustainability and AI (CSAI)'
p106
aS'Game Theory and Economic Paradigms (GTEP)'
p107
aS'Machine Learning Applications (MLA)'
p108
aS'Multiagent Systems (MAS)'
p109
aS'Novel Machine Learning Algorithms (NMLA)'
p110
aS'Planning and Scheduling (PS)'
p111
ag104
aS'AI and the Web (AIW)'
p112
ag112
aS'Game Theory and Economic Paradigms (GTEP)'
p113
ag113
aS'Knowledge Representation and Reasoning (KRR)'
p114
ag114
aS'Game Theory and Economic Paradigms (GTEP)'
p115
ag115
aS'Applications (APP)'
p116
ag116
aS'Reasoning under Uncertainty (RU)'
p117
aS'Knowledge Representation and Reasoning (KRR)'
p118
aS'Machine Learning Applications (MLA)'
p119
aS'NLP and Knowledge Representation (NLPKR)'
p120
aS'Novel Machine Learning Algorithms (NMLA)'
p121
ag117
aS'Game Theory and Economic Paradigms (GTEP)'
p122
ag122
aS'Search and Constraint Satisfaction (SCS)'
p123
aS'Knowledge Representation and Reasoning (KRR)'
p124
ag123
aS'Novel Machine Learning Algorithms (NMLA)'
p125
ag125
aS'Novel Machine Learning Algorithms (NMLA)'
p126
aS'Machine Learning Applications (MLA)'
p127
ag126
aS'Applications (APP)'
p128
ag128
aS'Machine Learning Applications (MLA)'
p129
aS'Computational Sustainability and AI (CSAI)'
p130
ag129
aS'Reasoning under Uncertainty (RU)'
p131
aS'Knowledge Representation and Reasoning (KRR)'
p132
ag131
aS'Game Theory and Economic Paradigms (GTEP)'
p133
ag133
aS'Vision (VIS)'
p134
aS'Knowledge Representation and Reasoning (KRR)'
p135
aS'Machine Learning Applications (MLA)'
p136
ag134
aS'Multiagent Systems (MAS)'
p137
aS'Game Theory and Economic Paradigms (GTEP)'
p138
ag137
aS'Computational Sustainability and AI (CSAI)'
p139
ag139
aS'NLP and Text Mining (NLPTM)'
p140
ag140
aS'Machine Learning Applications (MLA)'
p141
aS'AI and the Web (AIW)'
p142
aS'Applications (APP)'
p143
ag141
aS'Vision (VIS)'
p144
aS'Machine Learning Applications (MLA)'
p145
ag144
aS'Machine Learning Applications (MLA)'
p146
ag146
aS'AI and the Web (AIW)'
p147
ag147
aS'Novel Machine Learning Algorithms (NMLA)'
p148
ag148
aS'Robotics (ROB)'
p149
aS'Multiagent Systems (MAS)'
p150
ag149
aS'Machine Learning Applications (MLA)'
p151
ag151
aS'Novel Machine Learning Algorithms (NMLA)'
p152
aS'Machine Learning Applications (MLA)'
p153
ag152
aS'Novel Machine Learning Algorithms (NMLA)'
p154
ag154
aS'Novel Machine Learning Algorithms (NMLA)'
p155
aS'Computational Sustainability and AI (CSAI)'
p156
ag155
aS'Planning and Scheduling (PS)'
p157
ag157
aS'Humans and AI (HAI)'
p158
aS'Cognitive Modeling (CM)'
p159
ag158
aS'Novel Machine Learning Algorithms (NMLA)'
p160
aS'Machine Learning Applications (MLA)'
p161
ag160
aS'Heuristic Search and Optimization (HSO)'
p162
ag162
aS'Vision (VIS)'
p163
ag163
aS'Multiagent Systems (MAS)'
p164
aS'Computational Sustainability and AI (CSAI)'
p165
aS'Game Theory and Economic Paradigms (GTEP)'
p166
ag164
aS'Multiagent Systems (MAS)'
p167
aS'Machine Learning Applications (MLA)'
p168
ag167
aS'Game Playing and Interactive Entertainment (GPIE)'
p169
ag169
aS'Knowledge Representation and Reasoning (KRR)'
p170
ag170
aS'NLP and Knowledge Representation (NLPKR)'
p171
aS'AI and the Web (AIW)'
p172
aS'Machine Learning Applications (MLA)'
p173
ag171
aS'Novel Machine Learning Algorithms (NMLA)'
p174
aS'Machine Learning Applications (MLA)'
p175
ag174
aS'NLP and Text Mining (NLPTM)'
p176
aS'AI and the Web (AIW)'
p177
aS'Applications (APP)'
p178
aS'NLP and Machine Learning (NLPML)'
p179
ag176
aS'Reasoning under Uncertainty (RU)'
p180
ag180
aS'Search and Constraint Satisfaction (SCS)'
p181
ag181
aS'Multiagent Systems (MAS)'
p182
aS'Game Theory and Economic Paradigms (GTEP)'
p183
ag182
aS'Reasoning under Uncertainty (RU)'
p184
aS'Knowledge Representation and Reasoning (KRR)'
p185
aS'Planning and Scheduling (PS)'
p186
ag184
aS'Machine Learning Applications (MLA)'
p187
ag187
aS'Knowledge Representation and Reasoning (KRR)'
p188
ag188
aS'Knowledge Representation and Reasoning (KRR)'
p189
aS'Game Theory and Economic Paradigms (GTEP)'
p190
ag189
aS'Planning and Scheduling (PS)'
p191
aS'Knowledge Representation and Reasoning (KRR)'
p192
ag191
aS'Vision (VIS)'
p193
aS'Machine Learning Applications (MLA)'
p194
ag193
aS'Knowledge Representation and Reasoning (KRR)'
p195
aS'Applications (APP)'
p196
aS'Heuristic Search and Optimization (HSO)'
p197
ag195
aS'Multiagent Systems (MAS)'
p198
ag198
aS'Search and Constraint Satisfaction (SCS)'
p199
aS'Multiagent Systems (MAS)'
p200
ag199
aS'NLP and Text Mining (NLPTM)'
p201
ag201
aS'Game Playing and Interactive Entertainment (GPIE)'
p202
ag202
aS'Novel Machine Learning Algorithms (NMLA)'
p203
ag203
aS'Vision (VIS)'
p204
aS'Cognitive Systems (CS)'
p205
aS'Novel Machine Learning Algorithms (NMLA)'
p206
ag204
aS'Game Playing and Interactive Entertainment (GPIE)'
p207
aS'Applications (APP)'
p208
ag207
aS'Novel Machine Learning Algorithms (NMLA)'
p209
ag209
aS'Cognitive Systems (CS)'
p210
ag210
aS'Search and Constraint Satisfaction (SCS)'
p211
aS'Planning and Scheduling (PS)'
p212
aS'Reasoning under Uncertainty (RU)'
p213
ag211
aS'Reasoning under Uncertainty (RU)'
p214
aS'Game Theory and Economic Paradigms (GTEP)'
p215
aS'Multiagent Systems (MAS)'
p216
ag214
aS'Vision (VIS)'
p217
aS'Applications (APP)'
p218
aS'Machine Learning Applications (MLA)'
p219
ag217
aS'Reasoning under Uncertainty (RU)'
p220
aS'Novel Machine Learning Algorithms (NMLA)'
p221
ag220
aS'Robotics (ROB)'
p222
aS'Planning and Scheduling (PS)'
p223
ag222
aS'Novel Machine Learning Algorithms (NMLA)'
p224
ag224
aS'Planning and Scheduling (PS)'
p225
aS'Applications (APP)'
p226
aS'Knowledge Representation and Reasoning (KRR)'
p227
ag225
aS'Novel Machine Learning Algorithms (NMLA)'
p228
ag228
aS'Knowledge Representation and Reasoning (KRR)'
p229
aS'AI and the Web (AIW)'
p230
ag229
aS'Reasoning under Uncertainty (RU)'
p231
ag231
aS'Reasoning under Uncertainty (RU)'
p232
aS'Novel Machine Learning Algorithms (NMLA)'
p233
ag232
aS'Multiagent Systems (MAS)'
p234
aS'Game Theory and Economic Paradigms (GTEP)'
p235
ag234
aS'Multiagent Systems (MAS)'
p236
aS'Game Theory and Economic Paradigms (GTEP)'
p237
ag236
aS'Machine Learning Applications (MLA)'
p238
aS'Applications (APP)'
p239
ag238
aS'Vision (VIS)'
p240
aS'Machine Learning Applications (MLA)'
p241
aS'Novel Machine Learning Algorithms (NMLA)'
p242
ag240
aS'Planning and Scheduling (PS)'
p243
ag243
aS'NLP and Machine Learning (NLPML)'
p244
ag244
aS'Knowledge Representation and Reasoning (KRR)'
p245
ag245
aS'Novel Machine Learning Algorithms (NMLA)'
p246
ag246
aS'Robotics (ROB)'
p247
aS'Heuristic Search and Optimization (HSO)'
p248
aS'Humans and AI (HAI)'
p249
aS'Machine Learning Applications (MLA)'
p250
aS'Reasoning under Uncertainty (RU)'
p251
ag247
aS'Novel Machine Learning Algorithms (NMLA)'
p252
aS'AI and the Web (AIW)'
p253
ag252
aS'Novel Machine Learning Algorithms (NMLA)'
p254
ag254
aS'Machine Learning Applications (MLA)'
p255
aS'Applications (APP)'
p256
aS'Computational Sustainability and AI (CSAI)'
p257
ag255
aS'Heuristic Search and Optimization (HSO)'
p258
ag258
aS'Novel Machine Learning Algorithms (NMLA)'
p259
ag259
aS'Reasoning under Uncertainty (RU)'
p260
aS'Multiagent Systems (MAS)'
p261
aS'Planning and Scheduling (PS)'
p262
ag260
aS'Game Theory and Economic Paradigms (GTEP)'
p263
ag263
aS'Novel Machine Learning Algorithms (NMLA)'
p264
ag264
aS'Vision (VIS)'
p265
ag265
aS'Robotics (ROB)'
p266
aS'Cognitive Systems (CS)'
p267
ag266
aS'Multiagent Systems (MAS)'
p268
ag268
aS'Novel Machine Learning Algorithms (NMLA)'
p269
ag269
aS'Search and Constraint Satisfaction (SCS)'
p270
aS'Heuristic Search and Optimization (HSO)'
p271
aS'Multiagent Systems (MAS)'
p272
aS'Planning and Scheduling (PS)'
p273
ag270
aS'AI and the Web (AIW)'
p274
ag274
aS'Planning and Scheduling (PS)'
p275
ag275
aS'Novel Machine Learning Algorithms (NMLA)'
p276
aS'NLP and Machine Learning (NLPML)'
p277
ag276
aS'Humans and AI (HAI)'
p278
ag278
aS'Novel Machine Learning Algorithms (NMLA)'
p279
aS'Machine Learning Applications (MLA)'
p280
ag279
aS'Game Theory and Economic Paradigms (GTEP)'
p281
ag281
aS'NLP and Knowledge Representation (NLPKR)'
p282
aS'Cognitive Systems (CS)'
p283
aS'Knowledge Representation and Reasoning (KRR)'
p284
ag282
aS'Novel Machine Learning Algorithms (NMLA)'
p285
ag285
aS'Search and Constraint Satisfaction (SCS)'
p286
aS'Machine Learning Applications (MLA)'
p287
ag286
aS'Machine Learning Applications (MLA)'
p288
aS'Computational Sustainability and AI (CSAI)'
p289
ag288
aS'Multiagent Systems (MAS)'
p290
aS'Game Theory and Economic Paradigms (GTEP)'
p291
ag290
aS'AI and the Web (AIW)'
p292
ag292
aS'Planning and Scheduling (PS)'
p293
aS'Knowledge Representation and Reasoning (KRR)'
p294
ag293
aS'Multiagent Systems (MAS)'
p295
ag295
aS'Knowledge Representation and Reasoning (KRR)'
p296
ag296
aS'Multiagent Systems (MAS)'
p297
aS'Game Theory and Economic Paradigms (GTEP)'
p298
ag297
aS'Search and Constraint Satisfaction (SCS)'
p299
aS'Knowledge Representation and Reasoning (KRR)'
p300
aS'Planning and Scheduling (PS)'
p301
ag299
aS'Knowledge Representation and Reasoning (KRR)'
p302
ag302
aS'NLP and Machine Learning (NLPML)'
p303
aS'Human-Computation and Crowd Sourcing (HCC)'
p304
aS'Knowledge Representation and Reasoning (KRR)'
p305
ag303
aS'Reasoning under Uncertainty (RU)'
p306
aS'Machine Learning Applications (MLA)'
p307
aS'Novel Machine Learning Algorithms (NMLA)'
p308
aS'Planning and Scheduling (PS)'
p309
ag306
aS'Machine Learning Applications (MLA)'
p310
ag310
aS'Search and Constraint Satisfaction (SCS)'
p311
ag311
aS'Multiagent Systems (MAS)'
p312
aS'Game Theory and Economic Paradigms (GTEP)'
p313
ag312
aS'Reasoning under Uncertainty (RU)'
p314
aS'Knowledge Representation and Reasoning (KRR)'
p315
ag314
aS'Knowledge Representation and Reasoning (KRR)'
p316
ag316
aS'Multiagent Systems (MAS)'
p317
aS'Game Theory and Economic Paradigms (GTEP)'
p318
ag317
aS'Machine Learning Applications (MLA)'
p319
ag319
aS'Vision (VIS)'
p320
ag320
aS'Knowledge Representation and Reasoning (KRR)'
p321
aS'AI and the Web (AIW)'
p322
ag321
aS'Search and Constraint Satisfaction (SCS)'
p323
ag323
aS'NLP and Machine Learning (NLPML)'
p324
aS'NLP and Knowledge Representation (NLPKR)'
p325
ag324
aS'Planning and Scheduling (PS)'
p326
aS'Computational Sustainability and AI (CSAI)'
p327
aS'Heuristic Search and Optimization (HSO)'
p328
ag326
aS'Multiagent Systems (MAS)'
p329
aS'Game Theory and Economic Paradigms (GTEP)'
p330
aS'Human-Computation and Crowd Sourcing (HCC)'
p331
ag329
aS'Multiagent Systems (MAS)'
p332
aS'Applications (APP)'
p333
aS'Computational Sustainability and AI (CSAI)'
p334
aS'Game Theory and Economic Paradigms (GTEP)'
p335
ag332
aS'Multiagent Systems (MAS)'
p336
aS'Game Theory and Economic Paradigms (GTEP)'
p337
ag336
aS'Multiagent Systems (MAS)'
p338
aS'Game Theory and Economic Paradigms (GTEP)'
p339
ag338
aS'Search and Constraint Satisfaction (SCS)'
p340
ag340
aS'Novel Machine Learning Algorithms (NMLA)'
p341
ag341
aS'Novel Machine Learning Algorithms (NMLA)'
p342
aS'Machine Learning Applications (MLA)'
p343
ag342
aS'Reasoning under Uncertainty (RU)'
p344
ag344
aS'Planning and Scheduling (PS)'
p345
aS'Knowledge Representation and Reasoning (KRR)'
p346
ag345
aS'Multiagent Systems (MAS)'
p347
aS'Computational Sustainability and AI (CSAI)'
p348
aS'Game Theory and Economic Paradigms (GTEP)'
p349
ag347
aS'Search and Constraint Satisfaction (SCS)'
p350
ag350
aS'Novel Machine Learning Algorithms (NMLA)'
p351
aS'Human-Computation and Crowd Sourcing (HCC)'
p352
ag351
aS'Search and Constraint Satisfaction (SCS)'
p353
ag353
aS'Planning and Scheduling (PS)'
p354
ag354
aS'NLP and Machine Learning (NLPML)'
p355
aS'Machine Learning Applications (MLA)'
p356
ag355
aS'NLP and Text Mining (NLPTM)'
p357
aS'AI and the Web (AIW)'
p358
aS'NLP and Knowledge Representation (NLPKR)'
p359
aS'NLP and Machine Learning (NLPML)'
p360
ag357
aS'NLP and Text Mining (NLPTM)'
p361
aS'AI and the Web (AIW)'
p362
ag361
aS'Search and Constraint Satisfaction (SCS)'
p363
aS'Knowledge Representation and Reasoning (KRR)'
p364
aS'Reasoning under Uncertainty (RU)'
p365
ag363
aS'Robotics (ROB)'
p366
aS'Planning and Scheduling (PS)'
p367
aS'Reasoning under Uncertainty (RU)'
p368
ag366
aS'Applications (APP)'
p369
ag369
aS'Vision (VIS)'
p370
aS'Machine Learning Applications (MLA)'
p371
aS'Novel Machine Learning Algorithms (NMLA)'
p372
ag370
aS'Robotics (ROB)'
p373
aS'AI and the Web (AIW)'
p374
aS'Applications (APP)'
p375
aS'NLP and Knowledge Representation (NLPKR)'
p376
ag373
aS'Novel Machine Learning Algorithms (NMLA)'
p377
aS'Humans and AI (HAI)'
p378
ag377
aS''
p379
ag379
aS'Reasoning under Uncertainty (RU)'
p380
ag380
aS'NLP and Machine Learning (NLPML)'
p381
ag381
aS'Robotics (ROB)'
p382
aS'Machine Learning Applications (MLA)'
p383
ag382
aS'Computational Sustainability and AI (CSAI)'
p384
ag384
aS'Planning and Scheduling (PS)'
p385
aS'Cognitive Systems (CS)'
p386
ag385
aS'Novel Machine Learning Algorithms (NMLA)'
p387
ag387
aS'Reasoning under Uncertainty (RU)'
p388
aS'Multiagent Systems (MAS)'
p389
aS'Planning and Scheduling (PS)'
p390
ag388
aS'Vision (VIS)'
p391
aS'AI and the Web (AIW)'
p392
ag391
aS'Novel Machine Learning Algorithms (NMLA)'
p393
aS'AI and the Web (AIW)'
p394
aS'Applications (APP)'
p395
aS'Human-Computation and Crowd Sourcing (HCC)'
p396
aS'Machine Learning Applications (MLA)'
p397
ag393
aS'Machine Learning Applications (MLA)'
p398
ag398
aS'Machine Learning Applications (MLA)'
p399
ag399
aS'Robotics (ROB)'
p400
ag400
aS'Multiagent Systems (MAS)'
p401
aS'Game Theory and Economic Paradigms (GTEP)'
p402
ag401
aS'Reasoning under Uncertainty (RU)'
p403
aS'Novel Machine Learning Algorithms (NMLA)'
p404
ag403
aS'Cognitive Systems (CS)'
p405
ag405
aS'Computational Sustainability and AI (CSAI)'
p406
ag406
aS'Cognitive Modeling (CM)'
p407
ag407
aS'Machine Learning Applications (MLA)'
p408
aS'Human-Computation and Crowd Sourcing (HCC)'
p409
ag408
aS'Reasoning under Uncertainty (RU)'
p410
ag410
aS'Machine Learning Applications (MLA)'
p411
aS'Applications (APP)'
p412
ag411
aS'Novel Machine Learning Algorithms (NMLA)'
p413
ag413
aS'Game Theory and Economic Paradigms (GTEP)'
p414
ag414
aS'Applications (APP)'
p415
aS'AI and the Web (AIW)'
p416
ag415
aS'Novel Machine Learning Algorithms (NMLA)'
p417
aS'Heuristic Search and Optimization (HSO)'
p418
ag417
aS'Multiagent Systems (MAS)'
p419
ag419
aS'Planning and Scheduling (PS)'
p420
ag420
aS'Search and Constraint Satisfaction (SCS)'
p421
aS'Computational Sustainability and AI (CSAI)'
p422
aS'Heuristic Search and Optimization (HSO)'
p423
aS'Machine Learning Applications (MLA)'
p424
ag421
aS'Applications (APP)'
p425
ag425
aS'Reasoning under Uncertainty (RU)'
p426
aS'Cognitive Modeling (CM)'
p427
aS'Novel Machine Learning Algorithms (NMLA)'
p428
ag426
aS'NLP and Text Mining (NLPTM)'
p429
ag429
aS'Novel Machine Learning Algorithms (NMLA)'
p430
ag430
aS'Novel Machine Learning Algorithms (NMLA)'
p431
aS'Machine Learning Applications (MLA)'
p432
ag431
aS'Novel Machine Learning Algorithms (NMLA)'
p433
aS'AI and the Web (AIW)'
p434
ag433
aS'Humans and AI (HAI)'
p435
ag435
aS'Machine Learning Applications (MLA)'
p436
aS'Applications (APP)'
p437
aS'Humans and AI (HAI)'
p438
ag436
aS'Planning and Scheduling (PS)'
p439
aS'Heuristic Search and Optimization (HSO)'
p440
ag439
aS'Novel Machine Learning Algorithms (NMLA)'
p441
ag441
aS'Novel Machine Learning Algorithms (NMLA)'
p442
ag442
aS'Search and Constraint Satisfaction (SCS)'
p443
aS'Heuristic Search and Optimization (HSO)'
p444
ag443
aS'Vision (VIS)'
p445
aS'Machine Learning Applications (MLA)'
p446
ag445
aS'Game Theory and Economic Paradigms (GTEP)'
p447
ag447
aS'Novel Machine Learning Algorithms (NMLA)'
p448
ag448
aS'Novel Machine Learning Algorithms (NMLA)'
p449
ag449
aS'Applications (APP)'
p450
aS'AI and the Web (AIW)'
p451
ag450
aS'Planning and Scheduling (PS)'
p452
aS'AI and the Web (AIW)'
p453
aS'Applications (APP)'
p454
aS'Heuristic Search and Optimization (HSO)'
p455
ag452
aS'Vision (VIS)'
p456
ag456
aS'Novel Machine Learning Algorithms (NMLA)'
p457
ag457
aS'Novel Machine Learning Algorithms (NMLA)'
p458
aS'Heuristic Search and Optimization (HSO)'
p459
aS'Machine Learning Applications (MLA)'
p460
aS'NLP and Machine Learning (NLPML)'
p461
ag458
aS'Novel Machine Learning Algorithms (NMLA)'
p462
ag462
aS'Game Theory and Economic Paradigms (GTEP)'
p463
ag463
aS'AI and the Web (AIW)'
p464
ag464
aS'Vision (VIS)'
p465
aS'Robotics (ROB)'
p466
ag465
aS'Novel Machine Learning Algorithms (NMLA)'
p467
ag467
aS'Game Theory and Economic Paradigms (GTEP)'
p468
ag468
aS'Planning and Scheduling (PS)'
p469
aS'Heuristic Search and Optimization (HSO)'
p470
ag469
aS'Novel Machine Learning Algorithms (NMLA)'
p471
aS'AI and the Web (AIW)'
p472
ag471
aS'Applications (APP)'
p473
aS'AI and the Web (AIW)'
p474
ag473
aS'AI and the Web (AIW)'
p475
ag475
aS'Game Theory and Economic Paradigms (GTEP)'
p476
ag476
aS'Novel Machine Learning Algorithms (NMLA)'
p477
aS'Machine Learning Applications (MLA)'
p478
ag477
aS'Game Theory and Economic Paradigms (GTEP)'
p479
ag479
aS'Search and Constraint Satisfaction (SCS)'
p480
aS'Novel Machine Learning Algorithms (NMLA)'
p481
ag480
aS'Reasoning under Uncertainty (RU)'
p482
aS'Novel Machine Learning Algorithms (NMLA)'
p483
ag482
aS'Novel Machine Learning Algorithms (NMLA)'
p484
ag484
aS'Machine Learning Applications (MLA)'
p485
aS'AI and the Web (AIW)'
p486
ag485
aS'Search and Constraint Satisfaction (SCS)'
p487
aS'Heuristic Search and Optimization (HSO)'
p488
ag487
aS'Novel Machine Learning Algorithms (NMLA)'
p489
aS'Machine Learning Applications (MLA)'
p490
ag489
aS'Knowledge Representation and Reasoning (KRR)'
p491
ag491
aS'NLP and Machine Learning (NLPML)'
p492
aS'AI and the Web (AIW)'
p493
aS'Machine Learning Applications (MLA)'
p494
aS'NLP and Knowledge Representation (NLPKR)'
p495
ag492
aS'Planning and Scheduling (PS)'
p496
ag496
aS'Novel Machine Learning Algorithms (NMLA)'
p497
ag497
aS'Heuristic Search and Optimization (HSO)'
p498
ag498
aS'Search and Constraint Satisfaction (SCS)'
p499
ag499
aS'Vision (VIS)'
p500
aS'Novel Machine Learning Algorithms (NMLA)'
p501
ag500
aS'Novel Machine Learning Algorithms (NMLA)'
p502
aS'Applications (APP)'
p503
ag502
aS'Knowledge Representation and Reasoning (KRR)'
p504
ag504
aS'Novel Machine Learning Algorithms (NMLA)'
p505
ag505
aS'AI and the Web (AIW)'
p506
ag506
aS'AI and the Web (AIW)'
p507
ag507
aS'Knowledge Representation and Reasoning (KRR)'
p508
ag508
aS'Heuristic Search and Optimization (HSO)'
p509
ag509
aS'Novel Machine Learning Algorithms (NMLA)'
p510
ag510
aS'Knowledge Representation and Reasoning (KRR)'
p511
ag511
aS'Multiagent Systems (MAS)'
p512
aS'Game Theory and Economic Paradigms (GTEP)'
p513
ag512
aS'NLP and Knowledge Representation (NLPKR)'
p514
ag514
aS'AI and the Web (AIW)'
p515
ag515
aS'Novel Machine Learning Algorithms (NMLA)'
p516
ag516
aS'Novel Machine Learning Algorithms (NMLA)'
p517
ag517
aS'Reasoning under Uncertainty (RU)'
p518
aS'Novel Machine Learning Algorithms (NMLA)'
p519
ag518
aS'Machine Learning Applications (MLA)'
p520
ag520
aS'Novel Machine Learning Algorithms (NMLA)'
p521
ag521
aS'Game Theory and Economic Paradigms (GTEP)'
p522
ag522
aS'Game Theory and Economic Paradigms (GTEP)'
p523
ag523
aS'Novel Machine Learning Algorithms (NMLA)'
p524
aS'Machine Learning Applications (MLA)'
p525
ag524
aS'Novel Machine Learning Algorithms (NMLA)'
p526
aS'AI and the Web (AIW)'
p527
aS'NLP and Machine Learning (NLPML)'
p528
aS'NLP and Text Mining (NLPTM)'
p529
ag526
aS'Game Theory and Economic Paradigms (GTEP)'
p530
ag530
aS'Planning and Scheduling (PS)'
p531
aS'Knowledge Representation and Reasoning (KRR)'
p532
ag531
aS'Novel Machine Learning Algorithms (NMLA)'
p533
aS'Machine Learning Applications (MLA)'
p534
ag533
aS'Heuristic Search and Optimization (HSO)'
p535
ag535
aS'NLP and Knowledge Representation (NLPKR)'
p536
aS'AI and the Web (AIW)'
p537
aS'Knowledge Representation and Reasoning (KRR)'
p538
ag536
aS'Planning and Scheduling (PS)'
p539
ag539
aS'Multiagent Systems (MAS)'
p540
aS'Game Theory and Economic Paradigms (GTEP)'
p541
ag540
aS'Search and Constraint Satisfaction (SCS)'
p542
aS'Heuristic Search and Optimization (HSO)'
p543
ag542
aS'Planning and Scheduling (PS)'
p544
ag544
aS'Novel Machine Learning Algorithms (NMLA)'
p545
ag545
aS'Game Theory and Economic Paradigms (GTEP)'
p546
ag546
aS'Novel Machine Learning Algorithms (NMLA)'
p547
ag547
aS'Search and Constraint Satisfaction (SCS)'
p548
aS'Multiagent Systems (MAS)'
p549
ag548
aS'Game Theory and Economic Paradigms (GTEP)'
p550
ag550
aS'Knowledge Representation and Reasoning (KRR)'
p551
aS'Applications (APP)'
p552
ag551
aS'Machine Learning Applications (MLA)'
p553
ag553
aS'Reasoning under Uncertainty (RU)'
p554
ag554
aS'Knowledge Representation and Reasoning (KRR)'
p555
ag555
aS'Knowledge Representation and Reasoning (KRR)'
p556
aS'Game Playing and Interactive Entertainment (GPIE)'
p557
ag556
aS'Reasoning under Uncertainty (RU)'
p558
aS'Knowledge Representation and Reasoning (KRR)'
p559
ag558
aS'Novel Machine Learning Algorithms (NMLA)'
p560
ag560
aS'Novel Machine Learning Algorithms (NMLA)'
p561
aS'Machine Learning Applications (MLA)'
p562
ag561
aS'Novel Machine Learning Algorithms (NMLA)'
p563
aS'Knowledge Representation and Reasoning (KRR)'
p564
aS'Machine Learning Applications (MLA)'
p565
ag563
aS'Multiagent Systems (MAS)'
p566
ag566
aS'Novel Machine Learning Algorithms (NMLA)'
p567
ag567
aS'Machine Learning Applications (MLA)'
p568
aS'Heuristic Search and Optimization (HSO)'
p569
ag568
aS'Search and Constraint Satisfaction (SCS)'
p570
ag570
aS'Search and Constraint Satisfaction (SCS)'
p571
ag571
aS'Machine Learning Applications (MLA)'
p572
ag572
aS'Game Theory and Economic Paradigms (GTEP)'
p573
ag573
aS'Multiagent Systems (MAS)'
p574
aS'Game Theory and Economic Paradigms (GTEP)'
p575
ag574
aS'Search and Constraint Satisfaction (SCS)'
p576
ag576
aS'Novel Machine Learning Algorithms (NMLA)'
p577
aS'Applications (APP)'
p578
aS'Machine Learning Applications (MLA)'
p579
ag577
ag379
ag379
aS'Reasoning under Uncertainty (RU)'
p580
aS'Planning and Scheduling (PS)'
p581
ag580
aS'Human-Computation and Crowd Sourcing (HCC)'
p582
aS'Computational Sustainability and AI (CSAI)'
p583
aS'Game Theory and Economic Paradigms (GTEP)'
p584
ag582
aS'Multiagent Systems (MAS)'
p585
aS'Game Theory and Economic Paradigms (GTEP)'
p586
aS'Knowledge Representation and Reasoning (KRR)'
p587
ag585
aS'Machine Learning Applications (MLA)'
p588
aS'Applications (APP)'
p589
ag588
aS'Reasoning under Uncertainty (RU)'
p590
aS'Planning and Scheduling (PS)'
p591
ag590
aS'Reasoning under Uncertainty (RU)'
p592
aS'Planning and Scheduling (PS)'
p593
ag592
aS'Game Theory and Economic Paradigms (GTEP)'
p594
ag594
aS'Knowledge Representation and Reasoning (KRR)'
p595
ag595
aS'Vision (VIS)'
p596
ag596
aS'Vision (VIS)'
p597
ag597
aS'Novel Machine Learning Algorithms (NMLA)'
p598
aS'AI and the Web (AIW)'
p599
ag598
aS'Knowledge Representation and Reasoning (KRR)'
p600
ag600
aS'Novel Machine Learning Algorithms (NMLA)'
p601
ag601
aS'Knowledge Representation and Reasoning (KRR)'
p602
aS'AI and the Web (AIW)'
p603
ag602
aS'Novel Machine Learning Algorithms (NMLA)'
p604
ag604
aS'Knowledge Representation and Reasoning (KRR)'
p605
ag605
aS'Reasoning under Uncertainty (RU)'
p606
aS'Planning and Scheduling (PS)'
p607
ag606
aS'Novel Machine Learning Algorithms (NMLA)'
p608
ag608
aS'Game Theory and Economic Paradigms (GTEP)'
p609
ag609
aS'Novel Machine Learning Algorithms (NMLA)'
p610
aS'Applications (APP)'
p611
aS'Machine Learning Applications (MLA)'
p612
ag610
aS'Cognitive Modeling (CM)'
p613
ag613
aS'Reasoning under Uncertainty (RU)'
p614
ag614
aS'Machine Learning Applications (MLA)'
p615
aS'Applications (APP)'
p616
ag615
aS'Novel Machine Learning Algorithms (NMLA)'
p617
aS'Machine Learning Applications (MLA)'
p618
ag617
aS'Novel Machine Learning Algorithms (NMLA)'
p619
aS'Machine Learning Applications (MLA)'
p620
ag619
aS'Game Theory and Economic Paradigms (GTEP)'
p621
ag621
aS'Computational Sustainability and AI (CSAI)'
p622
ag622
aS'Applications (APP)'
p623
aS'AI and the Web (AIW)'
p624
ag623
aS'Vision (VIS)'
p625
aS'Novel Machine Learning Algorithms (NMLA)'
p626
ag625
aS'Multiagent Systems (MAS)'
p627
aS'Game Theory and Economic Paradigms (GTEP)'
p628
ag627
aS'Search and Constraint Satisfaction (SCS)'
p629
ag629
aS'Novel Machine Learning Algorithms (NMLA)'
p630
aS'NLP and Machine Learning (NLPML)'
p631
ag630
aS'Robotics (ROB)'
p632
aS'Applications (APP)'
p633
aS'Machine Learning Applications (MLA)'
p634
aS'Novel Machine Learning Algorithms (NMLA)'
p635
aS'Reasoning under Uncertainty (RU)'
p636
ag632
aS'Knowledge Representation and Reasoning (KRR)'
p637
ag637
aS'Humans and AI (HAI)'
p638
aS'Cognitive Modeling (CM)'
p639
ag638
aS'AI and the Web (AIW)'
p640
ag640
aS'Reasoning under Uncertainty (RU)'
p641
aS'Knowledge Representation and Reasoning (KRR)'
p642
aS'Planning and Scheduling (PS)'
p643
ag641
aS'Novel Machine Learning Algorithms (NMLA)'
p644
aS'Applications (APP)'
p645
aS'Game Theory and Economic Paradigms (GTEP)'
p646
aS'Machine Learning Applications (MLA)'
p647
ag644
aS'NLP and Machine Learning (NLPML)'
p648
aS'Machine Learning Applications (MLA)'
p649
ag648
aS'Reasoning under Uncertainty (RU)'
p650
aS'Game Theory and Economic Paradigms (GTEP)'
p651
aS'Planning and Scheduling (PS)'
p652
ag650
aS'Vision (VIS)'
p653
aS'Cognitive Systems (CS)'
p654
aS'Robotics (ROB)'
p655
ag653
aS'Knowledge Representation and Reasoning (KRR)'
p656
aS'Humans and AI (HAI)'
p657
ag656
aS'Knowledge Representation and Reasoning (KRR)'
p658
aS'Cognitive Systems (CS)'
p659
ag658
aS'Cognitive Systems (CS)'
p660
ag660
aS'NLP and Machine Learning (NLPML)'
p661
aS'NLP and Knowledge Representation (NLPKR)'
p662
ag661
aS'Search and Constraint Satisfaction (SCS)'
p663
ag663
aS'Heuristic Search and Optimization (HSO)'
p664
ag664
aS'Novel Machine Learning Algorithms (NMLA)'
p665
ag665
aS'Search and Constraint Satisfaction (SCS)'
p666
ag666
aS'Game Theory and Economic Paradigms (GTEP)'
p667
ag667
aS'Robotics (ROB)'
p668
aS'Reasoning under Uncertainty (RU)'
p669
ag668
aS'Novel Machine Learning Algorithms (NMLA)'
p670
aS'NLP and Machine Learning (NLPML)'
p671
ag670
aS'AI and the Web (AIW)'
p672
ag672
aS'AI and the Web (AIW)'
p673
ag673
aS'Knowledge Representation and Reasoning (KRR)'
p674
ag674
aS'NLP and Text Mining (NLPTM)'
p675
ag675
aS'Novel Machine Learning Algorithms (NMLA)'
p676
ag676
a.